(dp0
S'v201104'
p1
(dp2
S'CompanyService'
p3
(dp4
VcreateCompany
p5
(lp6
VCompany
p7
asVgetCompaniesByStatement
p8
(lp9
VCompanyPage
p10
asVupdateCompanies
p11
(lp12
VArrayOf_Company
p13
asVupdateCompany
p14
(lp15
VCompany
p16
asVcreateCompanies
p17
(lp18
VArrayOf_Company
p19
asVgetCompany
p20
(lp21
VCompany
p22
assS'NetworkService'
p23
(dp24
VgetAllNetworks
p25
(lp26
VArrayOf_Network
p27
asVgetCurrentNetwork
p28
(lp29
VNetwork
p30
asVupdateNetwork
p31
(lp32
VNetwork
p33
assS'PublisherQueryLanguageService'
p34
(dp35
Vselect
p36
(lp37
VResultSet
p38
assS'CreativeService'
p39
(dp40
VgetCreative
p41
(lp42
VCreative
p43
asVupdateCreatives
p44
(lp45
VArrayOf_Creative
p46
asVcreateCreative
p47
(lp48
VCreative
p49
asVupdateCreative
p50
(lp51
VCreative
p52
asVcreateCreatives
p53
(lp54
VArrayOf_Creative
p55
asVgetCreativesByStatement
p56
(lp57
VCreativePage
p58
assS'InventoryService'
p59
(dp60
VcreateAdUnit
p61
(lp62
VAdUnit
p63
asVgetAdUnit
p64
(lp65
VAdUnit
p66
asVupdateAdUnit
p67
(lp68
VAdUnit
p69
asVupdateAdUnits
p70
(lp71
VArrayOf_AdUnit
p72
asVcreateAdUnits
p73
(lp74
VArrayOf_AdUnit
p75
asVgetAdUnitsByStatement
p76
(lp77
VAdUnitPage
p78
asVperformAdUnitAction
p79
(lp80
VUpdateResult
p81
assS'OrderService'
p82
(dp83
VperformOrderAction
p84
(lp85
VUpdateResult
p86
asVupdateOrders
p87
(lp88
VArrayOf_Order
p89
asVgetOrdersByStatement
p90
(lp91
VOrderPage
p92
asVcreateOrders
p93
(lp94
VArrayOf_Order
p95
asVgetOrder
p96
(lp97
VOrder
p98
asVupdateOrder
p99
(lp100
VOrder
p101
asVcreateOrder
p102
(lp103
VOrder
p104
assS'ForecastService'
p105
(dp106
VgetForecast
p107
(lp108
VForecast
p109
asVgetForecastById
p110
(lp111
VForecast
p112
assS'CustomTargetingService'
p113
(dp114
VcreateCustomTargetingValues
p115
(lp116
VArrayOf_CustomTargetingValue
p117
asVgetCustomTargetingKeysByStatement
p118
(lp119
VCustomTargetingKeyPage
p120
asVgetCustomTargetingValuesByStatement
p121
(lp122
VCustomTargetingValuePage
p123
asVperformCustomTargetingValueAction
p124
(lp125
VUpdateResult
p126
asVperformCustomTargetingKeyAction
p127
(lp128
VUpdateResult
p129
asVupdateCustomTargetingValues
p130
(lp131
VArrayOf_CustomTargetingValue
p132
asVcreateCustomTargetingKeys
p133
(lp134
VArrayOf_CustomTargetingKey
p135
asVupdateCustomTargetingKeys
p136
(lp137
VArrayOf_CustomTargetingKey
p138
assS'ReportService'
p139
(dp140
VgetReportDownloadURL
p141
(lp142
Vxsd:string
p143
asVrunReportJob
p144
(lp145
VReportJob
p146
asVgetReportJob
p147
(lp148
VReportJob
p149
assS'LineItemCreativeAssociationService'
p150
(dp151
VupdateLineItemCreativeAssociations
p152
(lp153
VArrayOf_LineItemCreativeAssociation
p154
asVcreateLineItemCreativeAssociations
p155
(lp156
VArrayOf_LineItemCreativeAssociation
p157
asVperformLineItemCreativeAssociationAction
p158
(lp159
VUpdateResult
p160
asVgetLineItemCreativeAssociation
p161
(lp162
VLineItemCreativeAssociation
p163
asVgetLineItemCreativeAssociationsByStatement
p164
(lp165
VLineItemCreativeAssociationPage
p166
asVupdateLineItemCreativeAssociation
p167
(lp168
VLineItemCreativeAssociation
p169
asVcreateLineItemCreativeAssociation
p170
(lp171
VLineItemCreativeAssociation
p172
assS'UserService'
p173
(dp174
VupdateUser
p175
(lp176
VUser
p177
asVupdateUsers
p178
(lp179
VArrayOf_User
p180
asVperformUserAction
p181
(lp182
VUpdateResult
p183
asVgetAllRoles
p184
(lp185
VArrayOf_Role
p186
asVcreateUsers
p187
(lp188
VArrayOf_User
p189
asVgetUser
p190
(lp191
VUser
p192
asVgetUsersByStatement
p193
(lp194
VUserPage
p195
asVcreateUser
p196
(lp197
VUser
p198
assS'PlacementService'
p199
(dp200
VcreatePlacements
p201
(lp202
VArrayOf_Placement
p203
asVupdatePlacement
p204
(lp205
VPlacement
p206
asVgetPlacement
p207
(lp208
VPlacement
p209
asVupdatePlacements
p210
(lp211
VArrayOf_Placement
p212
asVperformPlacementAction
p213
(lp214
VUpdateResult
p215
asVgetPlacementsByStatement
p216
(lp217
VPlacementPage
p218
asVcreatePlacement
p219
(lp220
VPlacement
p221
assS'LineItemService'
p222
(dp223
VupdateLineItem
p224
(lp225
VLineItem
p226
asVgetLineItemsByStatement
p227
(lp228
VLineItemPage
p229
asVupdateLineItems
p230
(lp231
VArrayOf_LineItem
p232
asVperformLineItemAction
p233
(lp234
VUpdateResult
p235
asVgetLineItem
p236
(lp237
VLineItem
p238
asVcreateLineItem
p239
(lp240
VLineItem
p241
asVcreateLineItems
p242
(lp243
VArrayOf_LineItem
p244
asssS'v201107'
p245
(dp246
g3
(dp247
VcreateCompany
p248
(lp249
VCompany
p250
asVgetCompaniesByStatement
p251
(lp252
VCompanyPage
p253
asVupdateCompanies
p254
(lp255
VArrayOf_Company
p256
asVupdateCompany
p257
(lp258
VCompany
p259
asVcreateCompanies
p260
(lp261
VArrayOf_Company
p262
asVgetCompany
p263
(lp264
VCompany
p265
assg23
(dp266
VgetAllNetworks
p267
(lp268
VArrayOf_Network
p269
asVgetCurrentNetwork
p270
(lp271
VNetwork
p272
asVupdateNetwork
p273
(lp274
VNetwork
p275
assg34
(dp276
Vselect
p277
(lp278
VResultSet
p279
assg39
(dp280
VgetCreative
p281
(lp282
VCreative
p283
asVupdateCreatives
p284
(lp285
VArrayOf_Creative
p286
asVcreateCreative
p287
(lp288
VCreative
p289
asVupdateCreative
p290
(lp291
VCreative
p292
asVcreateCreatives
p293
(lp294
VArrayOf_Creative
p295
asVgetCreativesByStatement
p296
(lp297
VCreativePage
p298
assg59
(dp299
VcreateAdUnits
p300
(lp301
VArrayOf_AdUnit
p302
asVgetAdUnit
p303
(lp304
VAdUnit
p305
asVupdateAdUnit
p306
(lp307
VAdUnit
p308
asVupdateAdUnits
p309
(lp310
VArrayOf_AdUnit
p311
asVgetAdUnitsByStatement
p312
(lp313
VAdUnitPage
p314
asVcreateAdUnit
p315
(lp316
VAdUnit
p317
asVperformAdUnitAction
p318
(lp319
VUpdateResult
p320
asVgetAdUnitSizes
p321
(lp322
VArrayOf_AdUnitSize
p323
assg82
(dp324
VperformOrderAction
p325
(lp326
VUpdateResult
p327
asVupdateOrders
p328
(lp329
VArrayOf_Order
p330
asVgetOrdersByStatement
p331
(lp332
VOrderPage
p333
asVcreateOrders
p334
(lp335
VArrayOf_Order
p336
asVgetOrder
p337
(lp338
VOrder
p339
asVupdateOrder
p340
(lp341
VOrder
p342
asVcreateOrder
p343
(lp344
VOrder
p345
assg105
(dp346
VgetForecast
p347
(lp348
VForecast
p349
asVgetForecastById
p350
(lp351
VForecast
p352
assg113
(dp353
VcreateCustomTargetingValues
p354
(lp355
VArrayOf_CustomTargetingValue
p356
asVgetCustomTargetingKeysByStatement
p357
(lp358
VCustomTargetingKeyPage
p359
asVgetCustomTargetingValuesByStatement
p360
(lp361
VCustomTargetingValuePage
p362
asVperformCustomTargetingValueAction
p363
(lp364
VUpdateResult
p365
asVperformCustomTargetingKeyAction
p366
(lp367
VUpdateResult
p368
asVupdateCustomTargetingValues
p369
(lp370
VArrayOf_CustomTargetingValue
p371
asVcreateCustomTargetingKeys
p372
(lp373
VArrayOf_CustomTargetingKey
p374
asVupdateCustomTargetingKeys
p375
(lp376
VArrayOf_CustomTargetingKey
p377
assg139
(dp378
VgetReportDownloadURL
p379
(lp380
Vxsd:string
p381
asVrunReportJob
p382
(lp383
VReportJob
p384
asVgetReportJob
p385
(lp386
VReportJob
p387
assg150
(dp388
VupdateLineItemCreativeAssociations
p389
(lp390
VArrayOf_LineItemCreativeAssociation
p391
asVcreateLineItemCreativeAssociations
p392
(lp393
VArrayOf_LineItemCreativeAssociation
p394
asVperformLineItemCreativeAssociationAction
p395
(lp396
VUpdateResult
p397
asVgetLineItemCreativeAssociation
p398
(lp399
VLineItemCreativeAssociation
p400
asVgetLineItemCreativeAssociationsByStatement
p401
(lp402
VLineItemCreativeAssociationPage
p403
asVupdateLineItemCreativeAssociation
p404
(lp405
VLineItemCreativeAssociation
p406
asVcreateLineItemCreativeAssociation
p407
(lp408
VLineItemCreativeAssociation
p409
assg173
(dp410
VupdateUser
p411
(lp412
VUser
p413
asVupdateUsers
p414
(lp415
VArrayOf_User
p416
asVperformUserAction
p417
(lp418
VUpdateResult
p419
asVgetAllRoles
p420
(lp421
VArrayOf_Role
p422
asVgetCurrentUser
p423
(lp424
VUser
p425
asVcreateUsers
p426
(lp427
VArrayOf_User
p428
asVgetUser
p429
(lp430
VUser
p431
asVgetUsersByStatement
p432
(lp433
VUserPage
p434
asVcreateUser
p435
(lp436
VUser
p437
assS'LabelService'
p438
(dp439
VupdateLabels
p440
(lp441
VArrayOf_Label
p442
asVperformLabelAction
p443
(lp444
VUpdateResult
p445
asVcreateLabel
p446
(lp447
VLabel
p448
asVgetLabelsByStatement
p449
(lp450
VLabelPage
p451
asVgetLabel
p452
(lp453
VLabel
p454
asVupdateLabel
p455
(lp456
VLabel
p457
asVcreateLabels
p458
(lp459
VArrayOf_Label
p460
assg199
(dp461
VcreatePlacements
p462
(lp463
VArrayOf_Placement
p464
asVupdatePlacement
p465
(lp466
VPlacement
p467
asVgetPlacement
p468
(lp469
VPlacement
p470
asVupdatePlacements
p471
(lp472
VArrayOf_Placement
p473
asVperformPlacementAction
p474
(lp475
VUpdateResult
p476
asVgetPlacementsByStatement
p477
(lp478
VPlacementPage
p479
asVcreatePlacement
p480
(lp481
VPlacement
p482
assg222
(dp483
VupdateLineItem
p484
(lp485
VLineItem
p486
asVgetLineItemsByStatement
p487
(lp488
VLineItemPage
p489
asVupdateLineItems
p490
(lp491
VArrayOf_LineItem
p492
asVperformLineItemAction
p493
(lp494
VUpdateResult
p495
asVgetLineItem
p496
(lp497
VLineItem
p498
asVcreateLineItem
p499
(lp500
VLineItem
p501
asVcreateLineItems
p502
(lp503
VArrayOf_LineItem
p504
asssS'v201108'
p505
(dp506
g3
(dp507
VcreateCompany
p508
(lp509
VCompany
p510
asVgetCompaniesByStatement
p511
(lp512
VCompanyPage
p513
asVupdateCompanies
p514
(lp515
VArrayOf_Company
p516
asVupdateCompany
p517
(lp518
VCompany
p519
asVcreateCompanies
p520
(lp521
VArrayOf_Company
p522
asVgetCompany
p523
(lp524
VCompany
p525
assg23
(dp526
VgetAllNetworks
p527
(lp528
VArrayOf_Network
p529
asVgetCurrentNetwork
p530
(lp531
VNetwork
p532
asVupdateNetwork
p533
(lp534
VNetwork
p535
assg34
(dp536
Vselect
p537
(lp538
VResultSet
p539
assg39
(dp540
VgetCreative
p541
(lp542
VCreative
p543
asVupdateCreatives
p544
(lp545
VArrayOf_Creative
p546
asVcreateCreative
p547
(lp548
VCreative
p549
asVupdateCreative
p550
(lp551
VCreative
p552
asVcreateCreatives
p553
(lp554
VArrayOf_Creative
p555
asVgetCreativesByStatement
p556
(lp557
VCreativePage
p558
assg59
(dp559
VcreateAdUnits
p560
(lp561
VArrayOf_AdUnit
p562
asVgetAdUnit
p563
(lp564
VAdUnit
p565
asVupdateAdUnit
p566
(lp567
VAdUnit
p568
asVupdateAdUnits
p569
(lp570
VArrayOf_AdUnit
p571
asVgetAdUnitsByStatement
p572
(lp573
VAdUnitPage
p574
asVcreateAdUnit
p575
(lp576
VAdUnit
p577
asVperformAdUnitAction
p578
(lp579
VUpdateResult
p580
asVgetAdUnitSizes
p581
(lp582
VArrayOf_AdUnitSize
p583
assg82
(dp584
VperformOrderAction
p585
(lp586
VUpdateResult
p587
asVupdateOrders
p588
(lp589
VArrayOf_Order
p590
asVgetOrdersByStatement
p591
(lp592
VOrderPage
p593
asVcreateOrders
p594
(lp595
VArrayOf_Order
p596
asVgetOrder
p597
(lp598
VOrder
p599
asVupdateOrder
p600
(lp601
VOrder
p602
asVcreateOrder
p603
(lp604
VOrder
p605
assg105
(dp606
VgetForecast
p607
(lp608
VForecast
p609
asVgetForecastById
p610
(lp611
VForecast
p612
assg113
(dp613
VcreateCustomTargetingValues
p614
(lp615
VArrayOf_CustomTargetingValue
p616
asVgetCustomTargetingKeysByStatement
p617
(lp618
VCustomTargetingKeyPage
p619
asVgetCustomTargetingValuesByStatement
p620
(lp621
VCustomTargetingValuePage
p622
asVperformCustomTargetingValueAction
p623
(lp624
VUpdateResult
p625
asVperformCustomTargetingKeyAction
p626
(lp627
VUpdateResult
p628
asVupdateCustomTargetingValues
p629
(lp630
VArrayOf_CustomTargetingValue
p631
asVcreateCustomTargetingKeys
p632
(lp633
VArrayOf_CustomTargetingKey
p634
asVupdateCustomTargetingKeys
p635
(lp636
VArrayOf_CustomTargetingKey
p637
assg139
(dp638
VgetReportDownloadURL
p639
(lp640
Vxsd:string
p641
asVrunReportJob
p642
(lp643
VReportJob
p644
asVgetReportJob
p645
(lp646
VReportJob
p647
assS'ThirdPartySlotService'
p648
(dp649
VupdateThirdPartySlot
p650
(lp651
VThirdPartySlot
p652
asVgetThirdPartySlotsByStatement
p653
(lp654
VThirdPartySlotPage
p655
asVcreateThirdPartySlot
p656
(lp657
VThirdPartySlot
p658
asVperformThirdPartySlotAction
p659
(lp660
VUpdateResult
p661
assg150
(dp662
VupdateLineItemCreativeAssociations
p663
(lp664
VArrayOf_LineItemCreativeAssociation
p665
asVcreateLineItemCreativeAssociations
p666
(lp667
VArrayOf_LineItemCreativeAssociation
p668
asVperformLineItemCreativeAssociationAction
p669
(lp670
VUpdateResult
p671
asVgetLineItemCreativeAssociation
p672
(lp673
VLineItemCreativeAssociation
p674
asVgetLineItemCreativeAssociationsByStatement
p675
(lp676
VLineItemCreativeAssociationPage
p677
asVupdateLineItemCreativeAssociation
p678
(lp679
VLineItemCreativeAssociation
p680
asVcreateLineItemCreativeAssociation
p681
(lp682
VLineItemCreativeAssociation
p683
assg173
(dp684
VupdateUser
p685
(lp686
VUser
p687
asVupdateUsers
p688
(lp689
VArrayOf_User
p690
asVperformUserAction
p691
(lp692
VUpdateResult
p693
asVgetAllRoles
p694
(lp695
VArrayOf_Role
p696
asVgetCurrentUser
p697
(lp698
VUser
p699
asVcreateUsers
p700
(lp701
VArrayOf_User
p702
asVgetUser
p703
(lp704
VUser
p705
asVgetUsersByStatement
p706
(lp707
VUserPage
p708
asVcreateUser
p709
(lp710
VUser
p711
assg438
(dp712
VupdateLabels
p713
(lp714
VArrayOf_Label
p715
asVperformLabelAction
p716
(lp717
VUpdateResult
p718
asVcreateLabel
p719
(lp720
VLabel
p721
asVgetLabelsByStatement
p722
(lp723
VLabelPage
p724
asVgetLabel
p725
(lp726
VLabel
p727
asVupdateLabel
p728
(lp729
VLabel
p730
asVcreateLabels
p731
(lp732
VArrayOf_Label
p733
assg199
(dp734
VcreatePlacements
p735
(lp736
VArrayOf_Placement
p737
asVupdatePlacement
p738
(lp739
VPlacement
p740
asVgetPlacement
p741
(lp742
VPlacement
p743
asVupdatePlacements
p744
(lp745
VArrayOf_Placement
p746
asVperformPlacementAction
p747
(lp748
VUpdateResult
p749
asVgetPlacementsByStatement
p750
(lp751
VPlacementPage
p752
asVcreatePlacement
p753
(lp754
VPlacement
p755
assg222
(dp756
VupdateLineItem
p757
(lp758
VLineItem
p759
asVgetLineItemsByStatement
p760
(lp761
VLineItemPage
p762
asVupdateLineItems
p763
(lp764
VArrayOf_LineItem
p765
asVperformLineItemAction
p766
(lp767
VUpdateResult
p768
asVgetLineItem
p769
(lp770
VLineItem
p771
asVcreateLineItem
p772
(lp773
VLineItem
p774
asVcreateLineItems
p775
(lp776
VArrayOf_LineItem
p777
asssS'v201103'
p778
(dp779
g3
(dp780
VcreateCompany
p781
(lp782
VCompany
p783
asVgetCompaniesByStatement
p784
(lp785
VCompanyPage
p786
asVupdateCompanies
p787
(lp788
VArrayOf_Company
p789
asVupdateCompany
p790
(lp791
VCompany
p792
asVcreateCompanies
p793
(lp794
VArrayOf_Company
p795
asVgetCompany
p796
(lp797
VCompany
p798
assg23
(dp799
VgetAllNetworks
p800
(lp801
VArrayOf_Network
p802
asVgetCurrentNetwork
p803
(lp804
VNetwork
p805
asVupdateNetwork
p806
(lp807
VNetwork
p808
assg34
(dp809
Vselect
p810
(lp811
VResultSet
p812
assg39
(dp813
VgetCreative
p814
(lp815
VCreative
p816
asVupdateCreatives
p817
(lp818
VArrayOf_Creative
p819
asVcreateCreative
p820
(lp821
VCreative
p822
asVupdateCreative
p823
(lp824
VCreative
p825
asVcreateCreatives
p826
(lp827
VArrayOf_Creative
p828
asVgetCreativesByStatement
p829
(lp830
VCreativePage
p831
assg59
(dp832
VcreateAdUnit
p833
(lp834
VAdUnit
p835
asVgetAdUnit
p836
(lp837
VAdUnit
p838
asVupdateAdUnit
p839
(lp840
VAdUnit
p841
asVupdateAdUnits
p842
(lp843
VArrayOf_AdUnit
p844
asVcreateAdUnits
p845
(lp846
VArrayOf_AdUnit
p847
asVgetAdUnitsByStatement
p848
(lp849
VAdUnitPage
p850
asVperformAdUnitAction
p851
(lp852
VUpdateResult
p853
assg82
(dp854
VperformOrderAction
p855
(lp856
VUpdateResult
p857
asVupdateOrders
p858
(lp859
VArrayOf_Order
p860
asVgetOrdersByStatement
p861
(lp862
VOrderPage
p863
asVcreateOrders
p864
(lp865
VArrayOf_Order
p866
asVgetOrder
p867
(lp868
VOrder
p869
asVupdateOrder
p870
(lp871
VOrder
p872
asVcreateOrder
p873
(lp874
VOrder
p875
assg105
(dp876
VgetForecast
p877
(lp878
VForecast
p879
asVgetForecastById
p880
(lp881
VForecast
p882
assg113
(dp883
VcreateCustomTargetingValues
p884
(lp885
VArrayOf_CustomTargetingValue
p886
asVgetCustomTargetingKeysByStatement
p887
(lp888
VCustomTargetingKeyPage
p889
asVgetCustomTargetingValuesByStatement
p890
(lp891
VCustomTargetingValuePage
p892
asVperformCustomTargetingValueAction
p893
(lp894
VUpdateResult
p895
asVperformCustomTargetingKeyAction
p896
(lp897
VUpdateResult
p898
asVupdateCustomTargetingValues
p899
(lp900
VArrayOf_CustomTargetingValue
p901
asVcreateCustomTargetingKeys
p902
(lp903
VArrayOf_CustomTargetingKey
p904
asVupdateCustomTargetingKeys
p905
(lp906
VArrayOf_CustomTargetingKey
p907
assg139
(dp908
VgetReportDownloadURL
p909
(lp910
Vxsd:string
p911
asVrunReportJob
p912
(lp913
VReportJob
p914
asVgetReportJob
p915
(lp916
VReportJob
p917
assg150
(dp918
VupdateLineItemCreativeAssociations
p919
(lp920
VArrayOf_LineItemCreativeAssociation
p921
asVcreateLineItemCreativeAssociations
p922
(lp923
VArrayOf_LineItemCreativeAssociation
p924
asVperformLineItemCreativeAssociationAction
p925
(lp926
VUpdateResult
p927
asVgetLineItemCreativeAssociation
p928
(lp929
VLineItemCreativeAssociation
p930
asVgetLineItemCreativeAssociationsByStatement
p931
(lp932
VLineItemCreativeAssociationPage
p933
asVupdateLineItemCreativeAssociation
p934
(lp935
VLineItemCreativeAssociation
p936
asVcreateLineItemCreativeAssociation
p937
(lp938
VLineItemCreativeAssociation
p939
assg173
(dp940
VupdateUser
p941
(lp942
VUser
p943
asVupdateUsers
p944
(lp945
VArrayOf_User
p946
asVperformUserAction
p947
(lp948
VUpdateResult
p949
asVgetAllRoles
p950
(lp951
VArrayOf_Role
p952
asVcreateUsers
p953
(lp954
VArrayOf_User
p955
asVgetUser
p956
(lp957
VUser
p958
asVgetUsersByStatement
p959
(lp960
VUserPage
p961
asVcreateUser
p962
(lp963
VUser
p964
assg199
(dp965
VcreatePlacements
p966
(lp967
VArrayOf_Placement
p968
asVupdatePlacement
p969
(lp970
VPlacement
p971
asVgetPlacement
p972
(lp973
VPlacement
p974
asVupdatePlacements
p975
(lp976
VArrayOf_Placement
p977
asVperformPlacementAction
p978
(lp979
VUpdateResult
p980
asVgetPlacementsByStatement
p981
(lp982
VPlacementPage
p983
asVcreatePlacement
p984
(lp985
VPlacement
p986
assg222
(dp987
VupdateLineItem
p988
(lp989
VLineItem
p990
asVgetLineItemsByStatement
p991
(lp992
VLineItemPage
p993
asVupdateLineItems
p994
(lp995
VArrayOf_LineItem
p996
asVperformLineItemAction
p997
(lp998
VUpdateResult
p999
asVgetLineItem
p1000
(lp1001
VLineItem
p1002
asVcreateLineItem
p1003
(lp1004
VLineItem
p1005
asVcreateLineItems
p1006
(lp1007
VArrayOf_LineItem
p1008
asss.