(dp0
S'v201104'
p1
(dp2
S'CompanyService'
p3
(dp4
VcreateCompany
p5
(lp6
VCompany
p7
asVgetCompaniesByStatement
p8
(lp9
VCompanyPage
p10
asVupdateCompanies
p11
(lp12
VArrayOf_Company
p13
asVupdateCompany
p14
(lp15
VCompany
p16
asVcreateCompanies
p17
(lp18
VArrayOf_Company
p19
asVgetCompany
p20
(lp21
VCompany
p22
assS'NetworkService'
p23
(dp24
VgetAllNetworks
p25
(lp26
VArrayOf_Network
p27
asVgetCurrentNetwork
p28
(lp29
VNetwork
p30
asVupdateNetwork
p31
(lp32
VNetwork
p33
assS'PublisherQueryLanguageService'
p34
(dp35
Vselect
p36
(lp37
VResultSet
p38
assS'CreativeService'
p39
(dp40
VgetCreative
p41
(lp42
VCreative
p43
asVupdateCreatives
p44
(lp45
VArrayOf_Creative
p46
asVcreateCreative
p47
(lp48
VCreative
p49
asVupdateCreative
p50
(lp51
VCreative
p52
asVcreateCreatives
p53
(lp54
VArrayOf_Creative
p55
asVgetCreativesByStatement
p56
(lp57
VCreativePage
p58
assS'InventoryService'
p59
(dp60
VcreateAdUnit
p61
(lp62
VAdUnit
p63
asVgetAdUnit
p64
(lp65
VAdUnit
p66
asVupdateAdUnit
p67
(lp68
VAdUnit
p69
asVupdateAdUnits
p70
(lp71
VArrayOf_AdUnit
p72
asVcreateAdUnits
p73
(lp74
VArrayOf_AdUnit
p75
asVgetAdUnitsByStatement
p76
(lp77
VAdUnitPage
p78
asVperformAdUnitAction
p79
(lp80
VUpdateResult
p81
assS'OrderService'
p82
(dp83
VperformOrderAction
p84
(lp85
VUpdateResult
p86
asVupdateOrders
p87
(lp88
VArrayOf_Order
p89
asVgetOrdersByStatement
p90
(lp91
VOrderPage
p92
asVcreateOrders
p93
(lp94
VArrayOf_Order
p95
asVgetOrder
p96
(lp97
VOrder
p98
asVupdateOrder
p99
(lp100
VOrder
p101
asVcreateOrder
p102
(lp103
VOrder
p104
assS'ForecastService'
p105
(dp106
VgetForecast
p107
(lp108
VForecast
p109
asVgetForecastById
p110
(lp111
VForecast
p112
assS'CustomTargetingService'
p113
(dp114
VcreateCustomTargetingValues
p115
(lp116
VArrayOf_CustomTargetingValue
p117
asVgetCustomTargetingKeysByStatement
p118
(lp119
VCustomTargetingKeyPage
p120
asVgetCustomTargetingValuesByStatement
p121
(lp122
VCustomTargetingValuePage
p123
asVperformCustomTargetingValueAction
p124
(lp125
VUpdateResult
p126
asVperformCustomTargetingKeyAction
p127
(lp128
VUpdateResult
p129
asVupdateCustomTargetingValues
p130
(lp131
VArrayOf_CustomTargetingValue
p132
asVcreateCustomTargetingKeys
p133
(lp134
VArrayOf_CustomTargetingKey
p135
asVupdateCustomTargetingKeys
p136
(lp137
VArrayOf_CustomTargetingKey
p138
assS'ReportService'
p139
(dp140
VgetReportDownloadURL
p141
(lp142
Vxsd:string
p143
asVrunReportJob
p144
(lp145
VReportJob
p146
asVgetReportJob
p147
(lp148
VReportJob
p149
assS'LineItemCreativeAssociationService'
p150
(dp151
VupdateLineItemCreativeAssociations
p152
(lp153
VArrayOf_LineItemCreativeAssociation
p154
asVcreateLineItemCreativeAssociations
p155
(lp156
VArrayOf_LineItemCreativeAssociation
p157
asVperformLineItemCreativeAssociationAction
p158
(lp159
VUpdateResult
p160
asVgetLineItemCreativeAssociation
p161
(lp162
VLineItemCreativeAssociation
p163
asVgetLineItemCreativeAssociationsByStatement
p164
(lp165
VLineItemCreativeAssociationPage
p166
asVupdateLineItemCreativeAssociation
p167
(lp168
VLineItemCreativeAssociation
p169
asVcreateLineItemCreativeAssociation
p170
(lp171
VLineItemCreativeAssociation
p172
assS'UserService'
p173
(dp174
VupdateUser
p175
(lp176
VUser
p177
asVupdateUsers
p178
(lp179
VArrayOf_User
p180
asVperformUserAction
p181
(lp182
VUpdateResult
p183
asVgetAllRoles
p184
(lp185
VArrayOf_Role
p186
asVcreateUsers
p187
(lp188
VArrayOf_User
p189
asVgetUser
p190
(lp191
VUser
p192
asVgetUsersByStatement
p193
(lp194
VUserPage
p195
asVcreateUser
p196
(lp197
VUser
p198
assS'PlacementService'
p199
(dp200
VcreatePlacements
p201
(lp202
VArrayOf_Placement
p203
asVupdatePlacement
p204
(lp205
VPlacement
p206
asVgetPlacement
p207
(lp208
VPlacement
p209
asVupdatePlacements
p210
(lp211
VArrayOf_Placement
p212
asVperformPlacementAction
p213
(lp214
VUpdateResult
p215
asVgetPlacementsByStatement
p216
(lp217
VPlacementPage
p218
asVcreatePlacement
p219
(lp220
VPlacement
p221
assS'LineItemService'
p222
(dp223
VupdateLineItem
p224
(lp225
VLineItem
p226
asVgetLineItemsByStatement
p227
(lp228
VLineItemPage
p229
asVupdateLineItems
p230
(lp231
VArrayOf_LineItem
p232
asVperformLineItemAction
p233
(lp234
VUpdateResult
p235
asVgetLineItem
p236
(lp237
VLineItem
p238
asVcreateLineItem
p239
(lp240
VLineItem
p241
asVcreateLineItems
p242
(lp243
VArrayOf_LineItem
p244
asssS'v201107'
p245
(dp246
g3
(dp247
VcreateCompany
p248
(lp249
VCompany
p250
asVgetCompaniesByStatement
p251
(lp252
VCompanyPage
p253
asVupdateCompanies
p254
(lp255
VArrayOf_Company
p256
asVupdateCompany
p257
(lp258
VCompany
p259
asVcreateCompanies
p260
(lp261
VArrayOf_Company
p262
asVgetCompany
p263
(lp264
VCompany
p265
assg23
(dp266
VgetAllNetworks
p267
(lp268
VArrayOf_Network
p269
asVgetCurrentNetwork
p270
(lp271
VNetwork
p272
asVupdateNetwork
p273
(lp274
VNetwork
p275
assg34
(dp276
Vselect
p277
(lp278
VResultSet
p279
assg39
(dp280
VgetCreative
p281
(lp282
VCreative
p283
asVupdateCreatives
p284
(lp285
VArrayOf_Creative
p286
asVcreateCreative
p287
(lp288
VCreative
p289
asVupdateCreative
p290
(lp291
VCreative
p292
asVcreateCreatives
p293
(lp294
VArrayOf_Creative
p295
asVgetCreativesByStatement
p296
(lp297
VCreativePage
p298
assg59
(dp299
VcreateAdUnits
p300
(lp301
VArrayOf_AdUnit
p302
asVgetAdUnit
p303
(lp304
VAdUnit
p305
asVupdateAdUnit
p306
(lp307
VAdUnit
p308
asVupdateAdUnits
p309
(lp310
VArrayOf_AdUnit
p311
asVgetAdUnitsByStatement
p312
(lp313
VAdUnitPage
p314
asVcreateAdUnit
p315
(lp316
VAdUnit
p317
asVperformAdUnitAction
p318
(lp319
VUpdateResult
p320
asVgetAdUnitSizes
p321
(lp322
VArrayOf_AdUnitSize
p323
assg82
(dp324
VperformOrderAction
p325
(lp326
VUpdateResult
p327
asVupdateOrders
p328
(lp329
VArrayOf_Order
p330
asVgetOrdersByStatement
p331
(lp332
VOrderPage
p333
asVcreateOrders
p334
(lp335
VArrayOf_Order
p336
asVgetOrder
p337
(lp338
VOrder
p339
asVupdateOrder
p340
(lp341
VOrder
p342
asVcreateOrder
p343
(lp344
VOrder
p345
assg105
(dp346
VgetForecast
p347
(lp348
VForecast
p349
asVgetForecastById
p350
(lp351
VForecast
p352
assg113
(dp353
VcreateCustomTargetingValues
p354
(lp355
VArrayOf_CustomTargetingValue
p356
asVgetCustomTargetingKeysByStatement
p357
(lp358
VCustomTargetingKeyPage
p359
asVgetCustomTargetingValuesByStatement
p360
(lp361
VCustomTargetingValuePage
p362
asVperformCustomTargetingValueAction
p363
(lp364
VUpdateResult
p365
asVperformCustomTargetingKeyAction
p366
(lp367
VUpdateResult
p368
asVupdateCustomTargetingValues
p369
(lp370
VArrayOf_CustomTargetingValue
p371
asVcreateCustomTargetingKeys
p372
(lp373
VArrayOf_CustomTargetingKey
p374
asVupdateCustomTargetingKeys
p375
(lp376
VArrayOf_CustomTargetingKey
p377
assg139
(dp378
VgetReportDownloadURL
p379
(lp380
Vxsd:string
p381
asVrunReportJob
p382
(lp383
VReportJob
p384
asVgetReportJob
p385
(lp386
VReportJob
p387
assg150
(dp388
VupdateLineItemCreativeAssociations
p389
(lp390
VArrayOf_LineItemCreativeAssociation
p391
asVcreateLineItemCreativeAssociations
p392
(lp393
VArrayOf_LineItemCreativeAssociation
p394
asVperformLineItemCreativeAssociationAction
p395
(lp396
VUpdateResult
p397
asVgetLineItemCreativeAssociation
p398
(lp399
VLineItemCreativeAssociation
p400
asVgetLineItemCreativeAssociationsByStatement
p401
(lp402
VLineItemCreativeAssociationPage
p403
asVupdateLineItemCreativeAssociation
p404
(lp405
VLineItemCreativeAssociation
p406
asVcreateLineItemCreativeAssociation
p407
(lp408
VLineItemCreativeAssociation
p409
assg173
(dp410
VupdateUser
p411
(lp412
VUser
p413
asVupdateUsers
p414
(lp415
VArrayOf_User
p416
asVperformUserAction
p417
(lp418
VUpdateResult
p419
asVgetAllRoles
p420
(lp421
VArrayOf_Role
p422
asVgetCurrentUser
p423
(lp424
VUser
p425
asVcreateUsers
p426
(lp427
VArrayOf_User
p428
asVgetUser
p429
(lp430
VUser
p431
asVgetUsersByStatement
p432
(lp433
VUserPage
p434
asVcreateUser
p435
(lp436
VUser
p437
assS'LabelService'
p438
(dp439
VupdateLabels
p440
(lp441
VArrayOf_Label
p442
asVperformLabelAction
p443
(lp444
VUpdateResult
p445
asVcreateLabel
p446
(lp447
VLabel
p448
asVgetLabelsByStatement
p449
(lp450
VLabelPage
p451
asVgetLabel
p452
(lp453
VLabel
p454
asVupdateLabel
p455
(lp456
VLabel
p457
asVcreateLabels
p458
(lp459
VArrayOf_Label
p460
assg199
(dp461
VcreatePlacements
p462
(lp463
VArrayOf_Placement
p464
asVupdatePlacement
p465
(lp466
VPlacement
p467
asVgetPlacement
p468
(lp469
VPlacement
p470
asVupdatePlacements
p471
(lp472
VArrayOf_Placement
p473
asVperformPlacementAction
p474
(lp475
VUpdateResult
p476
asVgetPlacementsByStatement
p477
(lp478
VPlacementPage
p479
asVcreatePlacement
p480
(lp481
VPlacement
p482
assg222
(dp483
VupdateLineItem
p484
(lp485
VLineItem
p486
asVgetLineItemsByStatement
p487
(lp488
VLineItemPage
p489
asVupdateLineItems
p490
(lp491
VArrayOf_LineItem
p492
asVperformLineItemAction
p493
(lp494
VUpdateResult
p495
asVgetLineItem
p496
(lp497
VLineItem
p498
asVcreateLineItem
p499
(lp500
VLineItem
p501
asVcreateLineItems
p502
(lp503
VArrayOf_LineItem
p504
asssS'v201101'
p505
(dp506
g3
(dp507
VcreateCompany
p508
(lp509
VCompany
p510
asVgetCompaniesByStatement
p511
(lp512
VCompanyPage
p513
asVupdateCompanies
p514
(lp515
VArrayOf_Company
p516
asVupdateCompany
p517
(lp518
VCompany
p519
asVcreateCompanies
p520
(lp521
VArrayOf_Company
p522
asVgetCompany
p523
(lp524
VCompany
p525
assg23
(dp526
VgetAllNetworks
p527
(lp528
VArrayOf_Network
p529
asVgetCurrentNetwork
p530
(lp531
VNetwork
p532
asVupdateNetwork
p533
(lp534
VNetwork
p535
assg34
(dp536
Vselect
p537
(lp538
VResultSet
p539
assg39
(dp540
VgetCreative
p541
(lp542
VCreative
p543
asVupdateCreatives
p544
(lp545
VArrayOf_Creative
p546
asVcreateCreative
p547
(lp548
VCreative
p549
asVupdateCreative
p550
(lp551
VCreative
p552
asVcreateCreatives
p553
(lp554
VArrayOf_Creative
p555
asVgetCreativesByStatement
p556
(lp557
VCreativePage
p558
assg59
(dp559
VcreateAdUnit
p560
(lp561
VAdUnit
p562
asVgetAdUnit
p563
(lp564
VAdUnit
p565
asVupdateAdUnit
p566
(lp567
VAdUnit
p568
asVupdateAdUnits
p569
(lp570
VArrayOf_AdUnit
p571
asVcreateAdUnits
p572
(lp573
VArrayOf_AdUnit
p574
asVgetAdUnitsByStatement
p575
(lp576
VAdUnitPage
p577
asVperformAdUnitAction
p578
(lp579
VUpdateResult
p580
assg82
(dp581
VperformOrderAction
p582
(lp583
VUpdateResult
p584
asVupdateOrders
p585
(lp586
VArrayOf_Order
p587
asVgetOrdersByStatement
p588
(lp589
VOrderPage
p590
asVcreateOrders
p591
(lp592
VArrayOf_Order
p593
asVgetOrder
p594
(lp595
VOrder
p596
asVupdateOrder
p597
(lp598
VOrder
p599
asVcreateOrder
p600
(lp601
VOrder
p602
assg105
(dp603
VgetForecast
p604
(lp605
VForecast
p606
asVgetForecastById
p607
(lp608
VForecast
p609
assg113
(dp610
VcreateCustomTargetingValues
p611
(lp612
VArrayOf_CustomTargetingValue
p613
asVgetCustomTargetingKeysByStatement
p614
(lp615
VCustomTargetingKeyPage
p616
asVgetCustomTargetingValuesByStatement
p617
(lp618
VCustomTargetingValuePage
p619
asVperformCustomTargetingValueAction
p620
(lp621
VUpdateResult
p622
asVperformCustomTargetingKeyAction
p623
(lp624
VUpdateResult
p625
asVupdateCustomTargetingValues
p626
(lp627
VArrayOf_CustomTargetingValue
p628
asVcreateCustomTargetingKeys
p629
(lp630
VArrayOf_CustomTargetingKey
p631
asVupdateCustomTargetingKeys
p632
(lp633
VArrayOf_CustomTargetingKey
p634
assg139
(dp635
VgetReportDownloadURL
p636
(lp637
Vxsd:string
p638
asVrunReportJob
p639
(lp640
VReportJob
p641
asVgetReportJob
p642
(lp643
VReportJob
p644
assg150
(dp645
VupdateLineItemCreativeAssociations
p646
(lp647
VArrayOf_LineItemCreativeAssociation
p648
asVcreateLineItemCreativeAssociations
p649
(lp650
VArrayOf_LineItemCreativeAssociation
p651
asVperformLineItemCreativeAssociationAction
p652
(lp653
VUpdateResult
p654
asVgetLineItemCreativeAssociation
p655
(lp656
VLineItemCreativeAssociation
p657
asVgetLineItemCreativeAssociationsByStatement
p658
(lp659
VLineItemCreativeAssociationPage
p660
asVupdateLineItemCreativeAssociation
p661
(lp662
VLineItemCreativeAssociation
p663
asVcreateLineItemCreativeAssociation
p664
(lp665
VLineItemCreativeAssociation
p666
assg173
(dp667
VupdateUser
p668
(lp669
VUser
p670
asVupdateUsers
p671
(lp672
VArrayOf_User
p673
asVperformUserAction
p674
(lp675
VUpdateResult
p676
asVgetAllRoles
p677
(lp678
VArrayOf_Role
p679
asVcreateUsers
p680
(lp681
VArrayOf_User
p682
asVgetUser
p683
(lp684
VUser
p685
asVgetUsersByStatement
p686
(lp687
VUserPage
p688
asVcreateUser
p689
(lp690
VUser
p691
assg199
(dp692
VcreatePlacements
p693
(lp694
VArrayOf_Placement
p695
asVupdatePlacement
p696
(lp697
VPlacement
p698
asVgetPlacement
p699
(lp700
VPlacement
p701
asVupdatePlacements
p702
(lp703
VArrayOf_Placement
p704
asVperformPlacementAction
p705
(lp706
VUpdateResult
p707
asVgetPlacementsByStatement
p708
(lp709
VPlacementPage
p710
asVcreatePlacement
p711
(lp712
VPlacement
p713
assg222
(dp714
VupdateLineItem
p715
(lp716
VLineItem
p717
asVgetLineItemsByStatement
p718
(lp719
VLineItemPage
p720
asVupdateLineItems
p721
(lp722
VArrayOf_LineItem
p723
asVperformLineItemAction
p724
(lp725
VUpdateResult
p726
asVgetLineItem
p727
(lp728
VLineItem
p729
asVcreateLineItem
p730
(lp731
VLineItem
p732
asVcreateLineItems
p733
(lp734
VArrayOf_LineItem
p735
asssS'v201103'
p736
(dp737
g3
(dp738
VcreateCompany
p739
(lp740
VCompany
p741
asVgetCompaniesByStatement
p742
(lp743
VCompanyPage
p744
asVupdateCompanies
p745
(lp746
VArrayOf_Company
p747
asVupdateCompany
p748
(lp749
VCompany
p750
asVcreateCompanies
p751
(lp752
VArrayOf_Company
p753
asVgetCompany
p754
(lp755
VCompany
p756
assg23
(dp757
VgetAllNetworks
p758
(lp759
VArrayOf_Network
p760
asVgetCurrentNetwork
p761
(lp762
VNetwork
p763
asVupdateNetwork
p764
(lp765
VNetwork
p766
assg34
(dp767
Vselect
p768
(lp769
VResultSet
p770
assg39
(dp771
VgetCreative
p772
(lp773
VCreative
p774
asVupdateCreatives
p775
(lp776
VArrayOf_Creative
p777
asVcreateCreative
p778
(lp779
VCreative
p780
asVupdateCreative
p781
(lp782
VCreative
p783
asVcreateCreatives
p784
(lp785
VArrayOf_Creative
p786
asVgetCreativesByStatement
p787
(lp788
VCreativePage
p789
assg59
(dp790
VcreateAdUnit
p791
(lp792
VAdUnit
p793
asVgetAdUnit
p794
(lp795
VAdUnit
p796
asVupdateAdUnit
p797
(lp798
VAdUnit
p799
asVupdateAdUnits
p800
(lp801
VArrayOf_AdUnit
p802
asVcreateAdUnits
p803
(lp804
VArrayOf_AdUnit
p805
asVgetAdUnitsByStatement
p806
(lp807
VAdUnitPage
p808
asVperformAdUnitAction
p809
(lp810
VUpdateResult
p811
assg82
(dp812
VperformOrderAction
p813
(lp814
VUpdateResult
p815
asVupdateOrders
p816
(lp817
VArrayOf_Order
p818
asVgetOrdersByStatement
p819
(lp820
VOrderPage
p821
asVcreateOrders
p822
(lp823
VArrayOf_Order
p824
asVgetOrder
p825
(lp826
VOrder
p827
asVupdateOrder
p828
(lp829
VOrder
p830
asVcreateOrder
p831
(lp832
VOrder
p833
assg105
(dp834
VgetForecast
p835
(lp836
VForecast
p837
asVgetForecastById
p838
(lp839
VForecast
p840
assg113
(dp841
VcreateCustomTargetingValues
p842
(lp843
VArrayOf_CustomTargetingValue
p844
asVgetCustomTargetingKeysByStatement
p845
(lp846
VCustomTargetingKeyPage
p847
asVgetCustomTargetingValuesByStatement
p848
(lp849
VCustomTargetingValuePage
p850
asVperformCustomTargetingValueAction
p851
(lp852
VUpdateResult
p853
asVperformCustomTargetingKeyAction
p854
(lp855
VUpdateResult
p856
asVupdateCustomTargetingValues
p857
(lp858
VArrayOf_CustomTargetingValue
p859
asVcreateCustomTargetingKeys
p860
(lp861
VArrayOf_CustomTargetingKey
p862
asVupdateCustomTargetingKeys
p863
(lp864
VArrayOf_CustomTargetingKey
p865
assg139
(dp866
VgetReportDownloadURL
p867
(lp868
Vxsd:string
p869
asVrunReportJob
p870
(lp871
VReportJob
p872
asVgetReportJob
p873
(lp874
VReportJob
p875
assg150
(dp876
VupdateLineItemCreativeAssociations
p877
(lp878
VArrayOf_LineItemCreativeAssociation
p879
asVcreateLineItemCreativeAssociations
p880
(lp881
VArrayOf_LineItemCreativeAssociation
p882
asVperformLineItemCreativeAssociationAction
p883
(lp884
VUpdateResult
p885
asVgetLineItemCreativeAssociation
p886
(lp887
VLineItemCreativeAssociation
p888
asVgetLineItemCreativeAssociationsByStatement
p889
(lp890
VLineItemCreativeAssociationPage
p891
asVupdateLineItemCreativeAssociation
p892
(lp893
VLineItemCreativeAssociation
p894
asVcreateLineItemCreativeAssociation
p895
(lp896
VLineItemCreativeAssociation
p897
assg173
(dp898
VupdateUser
p899
(lp900
VUser
p901
asVupdateUsers
p902
(lp903
VArrayOf_User
p904
asVperformUserAction
p905
(lp906
VUpdateResult
p907
asVgetAllRoles
p908
(lp909
VArrayOf_Role
p910
asVcreateUsers
p911
(lp912
VArrayOf_User
p913
asVgetUser
p914
(lp915
VUser
p916
asVgetUsersByStatement
p917
(lp918
VUserPage
p919
asVcreateUser
p920
(lp921
VUser
p922
assg199
(dp923
VcreatePlacements
p924
(lp925
VArrayOf_Placement
p926
asVupdatePlacement
p927
(lp928
VPlacement
p929
asVgetPlacement
p930
(lp931
VPlacement
p932
asVupdatePlacements
p933
(lp934
VArrayOf_Placement
p935
asVperformPlacementAction
p936
(lp937
VUpdateResult
p938
asVgetPlacementsByStatement
p939
(lp940
VPlacementPage
p941
asVcreatePlacement
p942
(lp943
VPlacement
p944
assg222
(dp945
VupdateLineItem
p946
(lp947
VLineItem
p948
asVgetLineItemsByStatement
p949
(lp950
VLineItemPage
p951
asVupdateLineItems
p952
(lp953
VArrayOf_LineItem
p954
asVperformLineItemAction
p955
(lp956
VUpdateResult
p957
asVgetLineItem
p958
(lp959
VLineItem
p960
asVcreateLineItem
p961
(lp962
VLineItem
p963
asVcreateLineItems
p964
(lp965
VArrayOf_LineItem
p966
asssS'v201004'
p967
(dp968
g3
(dp969
VcreateCompany
p970
(lp971
VCompany
p972
asVgetCompaniesByStatement
p973
(lp974
VCompanyPage
p975
asVupdateCompanies
p976
(lp977
VArrayOf_Company
p978
asVupdateCompany
p979
(lp980
VCompany
p981
asVcreateCompanies
p982
(lp983
VArrayOf_Company
p984
asVgetCompany
p985
(lp986
VCompany
p987
assg23
(dp988
VgetAllNetworks
p989
(lp990
VArrayOf_Network
p991
asVgetCurrentNetwork
p992
(lp993
VNetwork
p994
asVupdateNetwork
p995
(lp996
VNetwork
p997
assg39
(dp998
VgetCreative
p999
(lp1000
VCreative
p1001
asVupdateCreatives
p1002
(lp1003
VArrayOf_Creative
p1004
asVcreateCreative
p1005
(lp1006
VCreative
p1007
asVupdateCreative
p1008
(lp1009
VCreative
p1010
asVcreateCreatives
p1011
(lp1012
VArrayOf_Creative
p1013
asVgetCreativesByStatement
p1014
(lp1015
VCreativePage
p1016
assg59
(dp1017
VcreateAdUnit
p1018
(lp1019
VAdUnit
p1020
asVgetAdUnit
p1021
(lp1022
VAdUnit
p1023
asVupdateAdUnit
p1024
(lp1025
VAdUnit
p1026
asVupdateAdUnits
p1027
(lp1028
VArrayOf_AdUnit
p1029
asVcreateAdUnits
p1030
(lp1031
VArrayOf_AdUnit
p1032
asVgetAdUnitsByStatement
p1033
(lp1034
VAdUnitPage
p1035
asVperformAdUnitAction
p1036
(lp1037
VUpdateResult
p1038
assg105
(dp1039
VgetForecast
p1040
(lp1041
VForecast
p1042
asVgetForecastById
p1043
(lp1044
VForecast
p1045
assg82
(dp1046
VperformOrderAction
p1047
(lp1048
VUpdateResult
p1049
asVupdateOrders
p1050
(lp1051
VArrayOf_Order
p1052
asVgetOrdersByStatement
p1053
(lp1054
VOrderPage
p1055
asVcreateOrders
p1056
(lp1057
VArrayOf_Order
p1058
asVgetOrder
p1059
(lp1060
VOrder
p1061
asVupdateOrder
p1062
(lp1063
VOrder
p1064
asVcreateOrder
p1065
(lp1066
VOrder
p1067
assg139
(dp1068
VgetReportDownloadURL
p1069
(lp1070
Vxsd:string
p1071
asVrunReportJob
p1072
(lp1073
VReportJob
p1074
asVgetReportJob
p1075
(lp1076
VReportJob
p1077
assg150
(dp1078
VupdateLineItemCreativeAssociations
p1079
(lp1080
VArrayOf_LineItemCreativeAssociation
p1081
asVcreateLineItemCreativeAssociations
p1082
(lp1083
VArrayOf_LineItemCreativeAssociation
p1084
asVperformLineItemCreativeAssociationAction
p1085
(lp1086
VUpdateResult
p1087
asVgetLineItemCreativeAssociation
p1088
(lp1089
VLineItemCreativeAssociation
p1090
asVgetLineItemCreativeAssociationsByStatement
p1091
(lp1092
VLineItemCreativeAssociationPage
p1093
asVupdateLineItemCreativeAssociation
p1094
(lp1095
VLineItemCreativeAssociation
p1096
asVcreateLineItemCreativeAssociation
p1097
(lp1098
VLineItemCreativeAssociation
p1099
assg173
(dp1100
VupdateUser
p1101
(lp1102
VUser
p1103
asVupdateUsers
p1104
(lp1105
VArrayOf_User
p1106
asVperformUserAction
p1107
(lp1108
VUpdateResult
p1109
asVgetAllRoles
p1110
(lp1111
VArrayOf_Role
p1112
asVcreateUsers
p1113
(lp1114
VArrayOf_User
p1115
asVgetUser
p1116
(lp1117
VUser
p1118
asVgetUsersByStatement
p1119
(lp1120
VUserPage
p1121
asVcreateUser
p1122
(lp1123
VUser
p1124
assg199
(dp1125
VcreatePlacements
p1126
(lp1127
VArrayOf_Placement
p1128
asVupdatePlacement
p1129
(lp1130
VPlacement
p1131
asVgetPlacement
p1132
(lp1133
VPlacement
p1134
asVupdatePlacements
p1135
(lp1136
VArrayOf_Placement
p1137
asVperformPlacementAction
p1138
(lp1139
VUpdateResult
p1140
asVgetPlacementsByStatement
p1141
(lp1142
VPlacementPage
p1143
asVcreatePlacement
p1144
(lp1145
VPlacement
p1146
assg222
(dp1147
VupdateLineItem
p1148
(lp1149
VLineItem
p1150
asVgetLineItemsByStatement
p1151
(lp1152
VLineItemPage
p1153
asVupdateLineItems
p1154
(lp1155
VArrayOf_LineItem
p1156
asVperformLineItemAction
p1157
(lp1158
VUpdateResult
p1159
asVgetLineItem
p1160
(lp1161
VLineItem
p1162
asVcreateLineItem
p1163
(lp1164
VLineItem
p1165
asVcreateLineItems
p1166
(lp1167
VArrayOf_LineItem
p1168
asssS'v201010'
p1169
(dp1170
g3
(dp1171
VcreateCompany
p1172
(lp1173
VCompany
p1174
asVgetCompaniesByStatement
p1175
(lp1176
VCompanyPage
p1177
asVupdateCompanies
p1178
(lp1179
VArrayOf_Company
p1180
asVupdateCompany
p1181
(lp1182
VCompany
p1183
asVcreateCompanies
p1184
(lp1185
VArrayOf_Company
p1186
asVgetCompany
p1187
(lp1188
VCompany
p1189
assg23
(dp1190
VgetAllNetworks
p1191
(lp1192
VArrayOf_Network
p1193
asVgetCurrentNetwork
p1194
(lp1195
VNetwork
p1196
asVupdateNetwork
p1197
(lp1198
VNetwork
p1199
assg39
(dp1200
VgetCreative
p1201
(lp1202
VCreative
p1203
asVupdateCreatives
p1204
(lp1205
VArrayOf_Creative
p1206
asVcreateCreative
p1207
(lp1208
VCreative
p1209
asVupdateCreative
p1210
(lp1211
VCreative
p1212
asVcreateCreatives
p1213
(lp1214
VArrayOf_Creative
p1215
asVgetCreativesByStatement
p1216
(lp1217
VCreativePage
p1218
assg59
(dp1219
VcreateAdUnit
p1220
(lp1221
VAdUnit
p1222
asVgetAdUnit
p1223
(lp1224
VAdUnit
p1225
asVupdateAdUnit
p1226
(lp1227
VAdUnit
p1228
asVupdateAdUnits
p1229
(lp1230
VArrayOf_AdUnit
p1231
asVcreateAdUnits
p1232
(lp1233
VArrayOf_AdUnit
p1234
asVgetAdUnitsByStatement
p1235
(lp1236
VAdUnitPage
p1237
asVperformAdUnitAction
p1238
(lp1239
VUpdateResult
p1240
assg105
(dp1241
VgetForecast
p1242
(lp1243
VForecast
p1244
asVgetForecastById
p1245
(lp1246
VForecast
p1247
assg82
(dp1248
VperformOrderAction
p1249
(lp1250
VUpdateResult
p1251
asVupdateOrders
p1252
(lp1253
VArrayOf_Order
p1254
asVgetOrdersByStatement
p1255
(lp1256
VOrderPage
p1257
asVcreateOrders
p1258
(lp1259
VArrayOf_Order
p1260
asVgetOrder
p1261
(lp1262
VOrder
p1263
asVupdateOrder
p1264
(lp1265
VOrder
p1266
asVcreateOrder
p1267
(lp1268
VOrder
p1269
assg139
(dp1270
VgetReportDownloadURL
p1271
(lp1272
Vxsd:string
p1273
asVrunReportJob
p1274
(lp1275
VReportJob
p1276
asVgetReportJob
p1277
(lp1278
VReportJob
p1279
assg150
(dp1280
VupdateLineItemCreativeAssociations
p1281
(lp1282
VArrayOf_LineItemCreativeAssociation
p1283
asVcreateLineItemCreativeAssociations
p1284
(lp1285
VArrayOf_LineItemCreativeAssociation
p1286
asVperformLineItemCreativeAssociationAction
p1287
(lp1288
VUpdateResult
p1289
asVgetLineItemCreativeAssociation
p1290
(lp1291
VLineItemCreativeAssociation
p1292
asVgetLineItemCreativeAssociationsByStatement
p1293
(lp1294
VLineItemCreativeAssociationPage
p1295
asVupdateLineItemCreativeAssociation
p1296
(lp1297
VLineItemCreativeAssociation
p1298
asVcreateLineItemCreativeAssociation
p1299
(lp1300
VLineItemCreativeAssociation
p1301
assg173
(dp1302
VupdateUser
p1303
(lp1304
VUser
p1305
asVupdateUsers
p1306
(lp1307
VArrayOf_User
p1308
asVperformUserAction
p1309
(lp1310
VUpdateResult
p1311
asVgetAllRoles
p1312
(lp1313
VArrayOf_Role
p1314
asVcreateUsers
p1315
(lp1316
VArrayOf_User
p1317
asVgetUser
p1318
(lp1319
VUser
p1320
asVgetUsersByStatement
p1321
(lp1322
VUserPage
p1323
asVcreateUser
p1324
(lp1325
VUser
p1326
assg199
(dp1327
VcreatePlacements
p1328
(lp1329
VArrayOf_Placement
p1330
asVupdatePlacement
p1331
(lp1332
VPlacement
p1333
asVgetPlacement
p1334
(lp1335
VPlacement
p1336
asVupdatePlacements
p1337
(lp1338
VArrayOf_Placement
p1339
asVperformPlacementAction
p1340
(lp1341
VUpdateResult
p1342
asVgetPlacementsByStatement
p1343
(lp1344
VPlacementPage
p1345
asVcreatePlacement
p1346
(lp1347
VPlacement
p1348
assg222
(dp1349
VupdateLineItem
p1350
(lp1351
VLineItem
p1352
asVgetLineItemsByStatement
p1353
(lp1354
VLineItemPage
p1355
asVupdateLineItems
p1356
(lp1357
VArrayOf_LineItem
p1358
asVperformLineItemAction
p1359
(lp1360
VUpdateResult
p1361
asVgetLineItem
p1362
(lp1363
VLineItem
p1364
asVcreateLineItem
p1365
(lp1366
VLineItem
p1367
asVcreateLineItems
p1368
(lp1369
VArrayOf_LineItem
p1370
asss.