(dp0
S'v1.13'
p1
(dp2
S'advertiser'
p3
(dp4
VgetAdvertisers
p5
(lp6
VAdvertiserRecordSet
p7
asVsaveAdvertiser
p8
(lp9
VAdvertiserSaveResult
p10
asVdeleteAdvertiser
p11
(lp12
ssS'placement'
p13
(dp14
VgetPlacementTagData
p15
(lp16
VPlacementTagData
p17
asVgetPlacementTypes
p18
(lp19
VArrayOfPlacementType
p20
asVdeletePlacementGroup
p21
(lp22
sVgetPlacement
p23
(lp24
VPlacement
p25
asVgetPricingTypes
p26
(lp27
VArrayOfPricingType
p28
asVgetPlacementGroup
p29
(lp30
VPlacementGroup
p31
asVdeletePlacement
p32
(lp33
sVgetInterstitialPlacementTagOptions
p34
(lp35
VArrayOfPlacementTagOption
p36
asVgetMobilePlacementTagOptions
p37
(lp38
VArrayOfPlacementTagOption
p39
asVupdatePlacements
p40
(lp41
VPlacementUpdateResultSet
p42
asVgetInStreamVideoPlacementTagOptions
p43
(lp44
VArrayOfPlacementTagOption
p45
asVgetPlacementsByCriteria
p46
(lp47
VPlacementRecordSet
p48
asVgetPlacementGroupTypes
p49
(lp50
VArrayOfPlacementGroupType
p51
asVgetPlacementGroupsByCriteria
p52
(lp53
VPlacementGroupRecordSet
p54
asVgetRegularPlacementTagOptions
p55
(lp56
VArrayOfPlacementTagOption
p57
asVsavePlacementGroup
p58
(lp59
VPlacementGroupSaveResult
p60
asVsavePlacement
p61
(lp62
VPlacementSaveResult
p63
assS'ad'
p64
(dp65
VgetBandwidths
p66
(lp67
VArrayOfBandwidth
p68
asVgetAd
p69
(lp70
VAdBase
p71
asVgetCities
p72
(lp73
VArrayOfCity
p74
asVupdateCreativeAssignmentProperties
p75
(lp76
VCreativeAdAssociationSaveResultSet
p77
asVgetOSPs
p78
(lp79
VArrayOfOSP
p80
asVgetOperatingSystems
p81
(lp82
VArrayOfOperatingSystem
p83
asVgetBrowsers
p84
(lp85
VArrayOfBrowser
p86
asVgetCountries
p87
(lp88
VArrayOfCountry
p89
asVgetMobilePlatforms
p90
(lp91
VArrayOfMobilePlatform
p92
asVgetUserListsByCriteria
p93
(lp94
VArrayOfUserList
p95
asVgetUserListGroupsByCriteria
p96
(lp97
VArrayOfUserListGroup
p98
asVgetAds
p99
(lp100
VAdRecordSet
p101
asVoverrideAdProperties
p102
(lp103
VOverridableAdPropertiesSaveResult
p104
asVdeleteAd
p105
(lp106
sVgetAreaCodes
p107
(lp108
VArrayOfAreaCode
p109
asVsaveAd
p110
(lp111
VAdSaveResult
p112
asVgetAdTypes
p113
(lp114
VArrayOfAdType
p115
asVgetRegions
p116
(lp117
VArrayOfRegion
p118
asVgetStates
p119
(lp120
VArrayOfState
p121
asVcopyAds
p122
(lp123
VArrayOfAdCopyResult
p124
asVgetDesignatedMarketAreas
p125
(lp126
VArrayOfDesignatedMarketArea
p127
asVgetDomainTypes
p128
(lp129
VArrayOfDomainType
p130
asVgetISPs
p131
(lp132
VArrayOfISP
p133
asVgetDomainNamesBySearchCriteria
p134
(lp135
VDomainNameRecordSet
p136
assS'campaign'
p137
(dp138
VsaveCampaign
p139
(lp140
VCampaignSaveResult
p141
asVsaveLandingPage
p142
(lp143
VLandingPageSaveResult
p144
asVgetCampaign
p145
(lp146
VCampaign
p147
asVmigrateCampaign
p148
(lp149
VCampaignMigrationResult
p150
asVgetCampaignsByCriteria
p151
(lp152
VCampaignRecordSet
p153
asVdeleteCampaign
p154
(lp155
sVgetLandingPagesForCampaign
p156
(lp157
VLandingPageRecordSet
p158
asVaddLandingPageToCampaign
p159
(lp160
Vxsd:boolean
p161
asVcopyCampaigns
p162
(lp163
VArrayOfCampaignCopyResult
p164
assS'changelog'
p165
(dp166
VgetChangeLogObjectTypes
p167
(lp168
VArrayOfChangeLogObjectType
p169
asVgetChangeLogRecords
p170
(lp171
VChangeLogRecordSet
p172
asVgetChangeLogRecordForObjectType
p173
(lp174
VChangeLogRecord
p175
asVgetChangeLogRecord
p176
(lp177
VChangeLogRecord
p178
asVupdateChangeLogRecordComments
p179
(lp180
sVupdateChangeLogRecordCommentsForObjectType
p181
(lp182
ssS'creativegroup'
p183
(dp184
VsaveCreativeGroup
p185
(lp186
VCreativeGroupSaveResult
p187
asVgetCreativeGroup
p188
(lp189
VCreativeGroup
p190
asVgetCreativeGroups
p191
(lp192
VCreativeGroupRecordSet
p193
asVdeleteCreativeGroup
p194
(lp195
ssS'site'
p196
(dp197
VgetDfaSite
p198
(lp199
VDfaSite
p200
asVgetAvailableDfaSiteContactTypes
p201
(lp202
VArrayOfDfaSiteContactType
p203
asVgetContacts
p204
(lp205
VContactRecordSet
p206
asVlinkDfaSitesToSiteDirectorySites
p207
(lp208
VArrayOfSiteDirectoryDfaSiteMappingResult
p209
asVimportSiteDirectorySites
p210
(lp211
VArrayOfSiteDirectorySiteImportResult
p212
asVsaveDfaSite
p213
(lp214
VDfaSiteSaveResult
p215
asVgetSitesByCriteria
p216
(lp217
VSiteRecordSet
p218
asVlinkDfaSiteToSiteDirectorySite
p219
(lp220
sVsaveSiteDirectorySite
p221
(lp222
VSiteSaveResult
p223
asVgetDfaSites
p224
(lp225
VDfaSiteRecordSet
p226
assS'userrole'
p227
(dp228
VgetAvailablePermissions
p229
(lp230
VArrayOfPermission
p231
asVgetUserRoleSummaries
p232
(lp233
VUserRoleSummaryRecordSet
p234
asVsaveUserRole
p235
(lp236
VUserRoleSaveResult
p237
asVgetUserRole
p238
(lp239
VUserRole
p240
asVgetUserRoles
p241
(lp242
VUserRoleRecordSet
p243
asVdeleteUserRole
p244
(lp245
ssS'creative'
p246
(dp247
VcopyCreative
p248
(lp249
VArrayOfCreativeCopyResult
p250
asVdeleteCreative
p251
(lp252
sVreplaceRichMediaCreativePackage
p253
(lp254
VRichMediaCreativeBase
p255
asVgetAssignedCreativeGroupsToCreative
p256
(lp257
VCreativeGroupRecordSet
p258
asVgetCreative
p259
(lp260
VCreativeBase
p261
asVassociateCreativesToCampaign
p262
(lp263
VArrayOfCreativeCampaignAssociationResult
p264
asVassignCreativeGroupsToCreative
p265
(lp266
sVsaveCreative
p267
(lp268
VCreativeSaveResult
p269
asVgetCreatives
p270
(lp271
VCreativeRecordSet
p272
asVgetCreativeRenderings
p273
(lp274
VArrayOfCreativeRenderingResult
p275
asVgenerateCreativeUploadSession
p276
(lp277
VCreativeUploadSession
p278
asVassignCreativesToPlacements
p279
(lp280
VArrayOfCreativePlacementAssignmentResult
p281
asVgetCreativeAssets
p282
(lp283
VCreativeAssetRecordSet
p284
asVdeleteRichMediaAsset
p285
(lp286
VRichMediaCreativeBase
p287
asVgetCompleteCreativeUploadSession
p288
(lp289
VCreativeUploadSession
p290
asVsaveCreativeAsset
p291
(lp292
VCreativeAssetSaveResult
p293
asVuploadCreativeFiles
p294
(lp295
VCreativeUploadSession
p296
asVgetRichMediaPreviewURL
p297
(lp298
Vsoapenc:string
p299
asVuploadRichMediaCreativePackage
p300
(lp301
VRichMediaCreativeBase
p302
asVgetCreativeTypes
p303
(lp304
VArrayOfCreativeType
p305
asVcreateCreativesFromCreativeUploadSession
p306
(lp307
VCreativeUploadSession
p308
asVreplaceRichMediaAsset
p309
(lp310
VRichMediaCreativeBase
p311
asVuploadRichMediaAsset
p312
(lp313
VRichMediaCreativeBase
p314
assS'creativefield'
p315
(dp316
VsaveCreativeFieldValue
p317
(lp318
VCreativeFieldValueSaveResult
p319
asVsaveCreativeField
p320
(lp321
VCreativeFieldSaveResult
p322
asVdeleteCreativeField
p323
(lp324
sVgetCreativeFieldValue
p325
(lp326
VCreativeFieldValue
p327
asVgetCreativeFieldValues
p328
(lp329
VCreativeFieldValueRecordSet
p330
asVgetCreativeFields
p331
(lp332
VCreativeFieldRecordSet
p333
asVdeleteCreativeFieldValue
p334
(lp335
sVgetCreativeField
p336
(lp337
VCreativeField
p338
assS'strategy'
p339
(dp340
VsavePlacementStrategy
p341
(lp342
VPlacementStrategySaveResult
p343
asVgetPlacementStrategiesByCriteria
p344
(lp345
VPlacementStrategyRecordSet
p346
asVdeletePlacementStrategy
p347
(lp348
sVgetPlacementStrategy
p349
(lp350
VPlacementStrategy
p351
assS'contentcategory'
p352
(dp353
VdeleteContentCategory
p354
(lp355
sVgetContentCategory
p356
(lp357
VContentCategory
p358
asVsaveContentCategory
p359
(lp360
VContentCategorySaveResult
p361
asVgetContentCategories
p362
(lp363
VContentCategoryRecordSet
p364
assS'user'
p365
(dp366
VgetAvailableUserFilterTypes
p367
(lp368
VArrayOfUserFilterType
p369
asVgetUsersByCriteria
p370
(lp371
VUserRecordSet
p372
asVgenerateUniqueUsername
p373
(lp374
Vsoapenc:string
p375
asVgetUser
p376
(lp377
VUser
p378
asVsendUserInvitationEmail
p379
(lp380
sVsaveUser
p381
(lp382
VUserSaveResult
p383
asVgetAvailableUserFilterCriteriaTypes
p384
(lp385
VArrayOfUserFilterCriteriaType
p386
asVgetAvailableTraffickerTypes
p387
(lp388
VArrayOfTraffickerType
p389
assS'advertisergroup'
p390
(dp391
VgetAdvertiserGroup
p392
(lp393
VAdvertiserGroup
p394
asVassignAdvertisersToAdvertiserGroup
p395
(lp396
sVgetAdvertiserGroups
p397
(lp398
VAdvertiserGroupRecordSet
p399
asVdeleteAdvertiserGroup
p400
(lp401
sVsaveAdvertiserGroup
p402
(lp403
VAdvertiserGroupSaveResult
p404
assS'report'
p405
(dp406
VrunDeferredReport
p407
(lp408
VReportInfo
p409
asVgetReport
p410
(lp411
VReportInfo
p412
asVgetReportsByCriteria
p413
(lp414
VReportInfoRecordSet
p415
assS'login'
p416
(dp417
VimpersonateUser
p418
(lp419
VUserProfile
p420
asVauthenticate
p421
(lp422
VUserProfile
p423
asVimpersonateNetwork
p424
(lp425
VUserProfile
p426
asVchangePassword
p427
(lp428
VUserProfile
p429
assS'size'
p430
(dp431
VgetSize
p432
(lp433
VSize
p434
asVsaveSize
p435
(lp436
VSizeSaveResult
p437
asVgetSizes
p438
(lp439
VSizeRecordSet
p440
assS'spotlight'
p441
(dp442
VdeleteSpotlightActivityGroup
p443
(lp444
sVgetAvailableCustomSpotlightVariables
p445
(lp446
VArrayOfCustomSpotlightVariable
p447
asVgetSpotlightActivity
p448
(lp449
VSpotlightActivity
p450
asVgetSpotlightActivityTypes
p451
(lp452
VArrayOfSpotlightActivityType
p453
asVgetSpotlightTagFormatTypes
p454
(lp455
VArrayOfSpotlightTagFormatType
p456
asVgetSpotlightConfiguration
p457
(lp458
VSpotlightConfiguration
p459
asVsaveSpotlightConfiguration
p460
(lp461
VSpotlightConfigurationSaveResult
p462
asVupdateActivityImageTags
p463
(lp464
VArrayOfSpotlightActivityImageTagsSaveResult
p465
asVgetCountriesByCriteria
p466
(lp467
VArrayOfCountry
p468
asVsaveSpotlightActivityGroup
p469
(lp470
VSpotlightActivityGroupSaveResult
p471
asVgetAvailableStandardVariables
p472
(lp473
VArrayOfStandardVariable
p474
asVgetSpotlightActivities
p475
(lp476
VSpotlightActivityRecordSet
p477
asVsaveSpotlightActivity
p478
(lp479
VSpotlightActivitySaveResult
p480
asVgetSpotlightTagMethodTypes
p481
(lp482
VArrayOfSpotlightTagMethodType
p483
asVdeleteSpotlightActivity
p484
(lp485
sVgenerateTags
p486
(lp487
Vsoapenc:string
p488
asVgetSpotlightTagCodeTypes
p489
(lp490
VArrayOfSpotlightTagCodeType
p491
asVgetSpotlightActivityGroups
p492
(lp493
VSpotlightActivityGroupRecordSet
p494
assS'subnetwork'
p495
(dp496
VsaveSubnetwork
p497
(lp498
VSubnetworkSaveResult
p499
asVgetSubnetworkSummaries
p500
(lp501
VSubnetworkSummaryRecordSet
p502
asVgetSubnetwork
p503
(lp504
VSubnetwork
p505
asVgetAllAvailablePermissions
p506
(lp507
VArrayOfPermission
p508
asVgetSubnetworks
p509
(lp510
VSubnetworkRecordSet
p511
asVgetDefaultPermissions
p512
(lp513
VArrayOfPermission
p514
assS'network'
p515
(dp516
VgetAssignedNetworkPermissions
p517
(lp518
VArrayOfNetworkPermission
p519
asVsaveNetwork
p520
(lp521
VNetworkSaveResult
p522
asVgetAdministratorPermissions
p523
(lp524
VArrayOfAdministratorPermission
p525
asVgetLanguageEncodingList
p526
(lp527
VArrayOfLanguageEncoding
p528
asVgetCurrencies
p529
(lp530
VArrayOfCurrency
p531
asVgetTimeZoneList
p532
(lp533
VArrayOfTimeZone
p534
asVuploadNetworkWidgetImage
p535
(lp536
VWidgetImageUploadResponse
p537
asVgetNetworks
p538
(lp539
VNetworkRecordSet
p540
asVgetAllNetworkPermissions
p541
(lp542
VArrayOfNetworkPermission
p543
asVgetNetwork
p544
(lp545
VNetwork
p546
asVgetAllPermissions
p547
(lp548
VArrayOfPermission
p549
asssS'v1.15'
p550
(dp551
g3
(dp552
VgetAdvertisers
p553
(lp554
VAdvertiserRecordSet
p555
asVsaveAdvertiser
p556
(lp557
VAdvertiserSaveResult
p558
asVdeleteAdvertiser
p559
(lp560
ssg13
(dp561
VgetPlacementTagData
p562
(lp563
VPlacementTagData
p564
asVgetPlacementTypes
p565
(lp566
VArrayOfPlacementType
p567
asVdeletePlacementGroup
p568
(lp569
sVgetPlacement
p570
(lp571
VPlacement
p572
asVgetPricingTypes
p573
(lp574
VArrayOfPricingType
p575
asVgetPlacementGroup
p576
(lp577
VPlacementGroup
p578
asVdeletePlacement
p579
(lp580
sVgetInterstitialPlacementTagOptions
p581
(lp582
VArrayOfPlacementTagOption
p583
asVgetMobilePlacementTagOptions
p584
(lp585
VArrayOfPlacementTagOption
p586
asVupdatePlacements
p587
(lp588
VPlacementUpdateResultSet
p589
asVgetInStreamVideoPlacementTagOptions
p590
(lp591
VArrayOfPlacementTagOption
p592
asVgetPlacementsByCriteria
p593
(lp594
VPlacementRecordSet
p595
asVgetPlacementGroupTypes
p596
(lp597
VArrayOfPlacementGroupType
p598
asVgetPlacementGroupsByCriteria
p599
(lp600
VPlacementGroupRecordSet
p601
asVgetRegularPlacementTagOptions
p602
(lp603
VArrayOfPlacementTagOption
p604
asVsavePlacementGroup
p605
(lp606
VPlacementGroupSaveResult
p607
asVsavePlacement
p608
(lp609
VPlacementSaveResult
p610
assS'ad'
p611
(dp612
VgetBandwidths
p613
(lp614
VArrayOfBandwidth
p615
asVgetAd
p616
(lp617
VAdBase
p618
asVgetCities
p619
(lp620
VArrayOfCity
p621
asVupdateCreativeAssignmentProperties
p622
(lp623
VCreativeAdAssociationSaveResultSet
p624
asVgetOSPs
p625
(lp626
VArrayOfOSP
p627
asVgetOperatingSystems
p628
(lp629
VArrayOfOperatingSystem
p630
asVgetBrowsers
p631
(lp632
VArrayOfBrowser
p633
asVgetCountries
p634
(lp635
VArrayOfCountry
p636
asVgetMobilePlatforms
p637
(lp638
VArrayOfMobilePlatform
p639
asVgetUserListsByCriteria
p640
(lp641
VArrayOfUserList
p642
asVgetUserListGroupsByCriteria
p643
(lp644
VArrayOfUserListGroup
p645
asVgetAds
p646
(lp647
VAdRecordSet
p648
asVoverrideAdProperties
p649
(lp650
VOverridableAdPropertiesSaveResult
p651
asVdeleteAd
p652
(lp653
sVgetAreaCodes
p654
(lp655
VArrayOfAreaCode
p656
asVsaveAd
p657
(lp658
VAdSaveResult
p659
asVgetAdTypes
p660
(lp661
VArrayOfAdType
p662
asVgetRegions
p663
(lp664
VArrayOfRegion
p665
asVgetStates
p666
(lp667
VArrayOfState
p668
asVcopyAds
p669
(lp670
VArrayOfAdCopyResult
p671
asVgetDesignatedMarketAreas
p672
(lp673
VArrayOfDesignatedMarketArea
p674
asVgetDomainTypes
p675
(lp676
VArrayOfDomainType
p677
asVgetISPs
p678
(lp679
VArrayOfISP
p680
asVgetDomainNamesBySearchCriteria
p681
(lp682
VDomainNameRecordSet
p683
assg137
(dp684
VsaveCampaign
p685
(lp686
VCampaignSaveResult
p687
asVsaveLandingPage
p688
(lp689
VLandingPageSaveResult
p690
asVgetCampaign
p691
(lp692
VCampaign
p693
asVmigrateCampaign
p694
(lp695
VCampaignMigrationResult
p696
asVgetCampaignsByCriteria
p697
(lp698
VCampaignRecordSet
p699
asVdeleteCampaign
p700
(lp701
sVgetLandingPagesForCampaign
p702
(lp703
VLandingPageRecordSet
p704
asVaddLandingPageToCampaign
p705
(lp706
Vxsd:boolean
p707
asVcopyCampaigns
p708
(lp709
VArrayOfCampaignCopyResult
p710
assg165
(dp711
VgetChangeLogObjectTypes
p712
(lp713
VArrayOfChangeLogObjectType
p714
asVgetChangeLogRecords
p715
(lp716
VChangeLogRecordSet
p717
asVgetChangeLogRecordForObjectType
p718
(lp719
VChangeLogRecord
p720
asVgetChangeLogRecord
p721
(lp722
VChangeLogRecord
p723
asVupdateChangeLogRecordComments
p724
(lp725
sVupdateChangeLogRecordCommentsForObjectType
p726
(lp727
ssg183
(dp728
VsaveCreativeGroup
p729
(lp730
VCreativeGroupSaveResult
p731
asVgetCreativeGroup
p732
(lp733
VCreativeGroup
p734
asVgetCreativeGroups
p735
(lp736
VCreativeGroupRecordSet
p737
asVdeleteCreativeGroup
p738
(lp739
ssS'site'
p740
(dp741
VgetDfaSite
p742
(lp743
VDfaSite
p744
asVgetAvailableDfaSiteContactTypes
p745
(lp746
VArrayOfDfaSiteContactType
p747
asVgetContacts
p748
(lp749
VContactRecordSet
p750
asVlinkDfaSitesToSiteDirectorySites
p751
(lp752
VArrayOfSiteDirectoryDfaSiteMappingResult
p753
asVimportSiteDirectorySites
p754
(lp755
VArrayOfSiteDirectorySiteImportResult
p756
asVsaveDfaSite
p757
(lp758
VDfaSiteSaveResult
p759
asVgetSitesByCriteria
p760
(lp761
VSiteRecordSet
p762
asVlinkDfaSiteToSiteDirectorySite
p763
(lp764
sVsaveSiteDirectorySite
p765
(lp766
VSiteSaveResult
p767
asVgetDfaSites
p768
(lp769
VDfaSiteRecordSet
p770
assg227
(dp771
VgetAvailablePermissions
p772
(lp773
VArrayOfPermission
p774
asVgetUserRoleSummaries
p775
(lp776
VUserRoleSummaryRecordSet
p777
asVsaveUserRole
p778
(lp779
VUserRoleSaveResult
p780
asVgetUserRole
p781
(lp782
VUserRole
p783
asVgetUserRoles
p784
(lp785
VUserRoleRecordSet
p786
asVdeleteUserRole
p787
(lp788
ssg246
(dp789
VcopyCreative
p790
(lp791
VArrayOfCreativeCopyResult
p792
asVdeleteCreative
p793
(lp794
sVreplaceRichMediaCreativePackage
p795
(lp796
VRichMediaCreativeBase
p797
asVgetAssignedCreativeGroupsToCreative
p798
(lp799
VCreativeGroupRecordSet
p800
asVgetCreative
p801
(lp802
VCreativeBase
p803
asVassociateCreativesToCampaign
p804
(lp805
VArrayOfCreativeCampaignAssociationResult
p806
asVassignCreativeGroupsToCreative
p807
(lp808
sVsaveCreative
p809
(lp810
VCreativeSaveResult
p811
asVgetCreatives
p812
(lp813
VCreativeRecordSet
p814
asVgetCreativeRenderings
p815
(lp816
VArrayOfCreativeRenderingResult
p817
asVgenerateCreativeUploadSession
p818
(lp819
VCreativeUploadSession
p820
asVassignCreativesToPlacements
p821
(lp822
VArrayOfCreativePlacementAssignmentResult
p823
asVgetCreativeAssets
p824
(lp825
VCreativeAssetRecordSet
p826
asVdeleteRichMediaAsset
p827
(lp828
VRichMediaCreativeBase
p829
asVgetCompleteCreativeUploadSession
p830
(lp831
VCreativeUploadSession
p832
asVsaveCreativeAsset
p833
(lp834
VCreativeAssetSaveResult
p835
asVuploadCreativeFiles
p836
(lp837
VCreativeUploadSession
p838
asVgetRichMediaPreviewURL
p839
(lp840
Vsoapenc:string
p841
asVuploadRichMediaCreativePackage
p842
(lp843
VRichMediaCreativeBase
p844
asVgetCreativeTypes
p845
(lp846
VArrayOfCreativeType
p847
asVcreateCreativesFromCreativeUploadSession
p848
(lp849
VCreativeUploadSession
p850
asVreplaceRichMediaAsset
p851
(lp852
VRichMediaCreativeBase
p853
asVuploadRichMediaAsset
p854
(lp855
VRichMediaCreativeBase
p856
assg315
(dp857
VsaveCreativeFieldValue
p858
(lp859
VCreativeFieldValueSaveResult
p860
asVsaveCreativeField
p861
(lp862
VCreativeFieldSaveResult
p863
asVdeleteCreativeField
p864
(lp865
sVgetCreativeFieldValue
p866
(lp867
VCreativeFieldValue
p868
asVgetCreativeFieldValues
p869
(lp870
VCreativeFieldValueRecordSet
p871
asVgetCreativeFields
p872
(lp873
VCreativeFieldRecordSet
p874
asVdeleteCreativeFieldValue
p875
(lp876
sVgetCreativeField
p877
(lp878
VCreativeField
p879
assg339
(dp880
VsavePlacementStrategy
p881
(lp882
VPlacementStrategySaveResult
p883
asVgetPlacementStrategiesByCriteria
p884
(lp885
VPlacementStrategyRecordSet
p886
asVdeletePlacementStrategy
p887
(lp888
sVgetPlacementStrategy
p889
(lp890
VPlacementStrategy
p891
assg352
(dp892
VdeleteContentCategory
p893
(lp894
sVgetContentCategory
p895
(lp896
VContentCategory
p897
asVsaveContentCategory
p898
(lp899
VContentCategorySaveResult
p900
asVgetContentCategories
p901
(lp902
VContentCategoryRecordSet
p903
assS'user'
p904
(dp905
VgetAvailableUserFilterTypes
p906
(lp907
VArrayOfUserFilterType
p908
asVgetUsersByCriteria
p909
(lp910
VUserRecordSet
p911
asVgenerateUniqueUsername
p912
(lp913
Vsoapenc:string
p914
asVgetUser
p915
(lp916
VUser
p917
asVsendUserInvitationEmail
p918
(lp919
sVsaveUser
p920
(lp921
VUserSaveResult
p922
asVgetAvailableUserFilterCriteriaTypes
p923
(lp924
VArrayOfUserFilterCriteriaType
p925
asVgetAvailableTraffickerTypes
p926
(lp927
VArrayOfTraffickerType
p928
assg390
(dp929
VgetAdvertiserGroup
p930
(lp931
VAdvertiserGroup
p932
asVassignAdvertisersToAdvertiserGroup
p933
(lp934
sVgetAdvertiserGroups
p935
(lp936
VAdvertiserGroupRecordSet
p937
asVdeleteAdvertiserGroup
p938
(lp939
sVsaveAdvertiserGroup
p940
(lp941
VAdvertiserGroupSaveResult
p942
assg405
(dp943
VrunDeferredReport
p944
(lp945
VReportInfo
p946
asVgetReport
p947
(lp948
VReportInfo
p949
asVgetReportsByCriteria
p950
(lp951
VReportInfoRecordSet
p952
assS'login'
p953
(dp954
VimpersonateUser
p955
(lp956
VUserProfile
p957
asVauthenticate
p958
(lp959
VUserProfile
p960
asVimpersonateNetwork
p961
(lp962
VUserProfile
p963
asVchangePassword
p964
(lp965
VUserProfile
p966
assS'size'
p967
(dp968
VgetSize
p969
(lp970
VSize
p971
asVsaveSize
p972
(lp973
VSizeSaveResult
p974
asVgetSizes
p975
(lp976
VSizeRecordSet
p977
assg441
(dp978
VdeleteSpotlightActivityGroup
p979
(lp980
sVgetAvailableCustomSpotlightVariables
p981
(lp982
VArrayOfCustomSpotlightVariable
p983
asVgetSpotlightActivity
p984
(lp985
VSpotlightActivity
p986
asVgetSpotlightActivityTypes
p987
(lp988
VArrayOfSpotlightActivityType
p989
asVgetSpotlightTagFormatTypes
p990
(lp991
VArrayOfSpotlightTagFormatType
p992
asVgetSpotlightConfiguration
p993
(lp994
VSpotlightConfiguration
p995
asVsaveSpotlightConfiguration
p996
(lp997
VSpotlightConfigurationSaveResult
p998
asVupdateActivityImageTags
p999
(lp1000
VArrayOfSpotlightActivityImageTagsSaveResult
p1001
asVgetCountriesByCriteria
p1002
(lp1003
VArrayOfCountry
p1004
asVsaveSpotlightActivityGroup
p1005
(lp1006
VSpotlightActivityGroupSaveResult
p1007
asVgetAvailableStandardVariables
p1008
(lp1009
VArrayOfStandardVariable
p1010
asVgetSpotlightActivities
p1011
(lp1012
VSpotlightActivityRecordSet
p1013
asVsaveSpotlightActivity
p1014
(lp1015
VSpotlightActivitySaveResult
p1016
asVgetSpotlightTagMethodTypes
p1017
(lp1018
VArrayOfSpotlightTagMethodType
p1019
asVdeleteSpotlightActivity
p1020
(lp1021
sVgenerateTags
p1022
(lp1023
Vsoapenc:string
p1024
asVgetSpotlightTagCodeTypes
p1025
(lp1026
VArrayOfSpotlightTagCodeType
p1027
asVgetSpotlightActivityGroups
p1028
(lp1029
VSpotlightActivityGroupRecordSet
p1030
assg495
(dp1031
VsaveSubnetwork
p1032
(lp1033
VSubnetworkSaveResult
p1034
asVgetSubnetworkSummaries
p1035
(lp1036
VSubnetworkSummaryRecordSet
p1037
asVgetSubnetwork
p1038
(lp1039
VSubnetwork
p1040
asVgetAllAvailablePermissions
p1041
(lp1042
VArrayOfPermission
p1043
asVgetSubnetworks
p1044
(lp1045
VSubnetworkRecordSet
p1046
asVgetDefaultPermissions
p1047
(lp1048
VArrayOfPermission
p1049
assg515
(dp1050
VgetAssignedNetworkPermissions
p1051
(lp1052
VArrayOfNetworkPermission
p1053
asVsaveNetwork
p1054
(lp1055
VNetworkSaveResult
p1056
asVgetAdministratorPermissions
p1057
(lp1058
VArrayOfAdministratorPermission
p1059
asVgetLanguageEncodingList
p1060
(lp1061
VArrayOfLanguageEncoding
p1062
asVgetCurrencies
p1063
(lp1064
VArrayOfCurrency
p1065
asVgetTimeZoneList
p1066
(lp1067
VArrayOfTimeZone
p1068
asVexecuteAgreement
p1069
(lp1070
sVgetAgreements
p1071
(lp1072
VAgreementRecordSet
p1073
asVgetNetworks
p1074
(lp1075
VNetworkRecordSet
p1076
asVgetAllNetworkPermissions
p1077
(lp1078
VArrayOfNetworkPermission
p1079
asVgetNetwork
p1080
(lp1081
VNetwork
p1082
asVgetAllPermissions
p1083
(lp1084
VArrayOfPermission
p1085
asVuploadNetworkWidgetImage
p1086
(lp1087
VWidgetImageUploadResponse
p1088
asssS'v1.14'
p1089
(dp1090
g3
(dp1091
VgetAdvertisers
p1092
(lp1093
VAdvertiserRecordSet
p1094
asVsaveAdvertiser
p1095
(lp1096
VAdvertiserSaveResult
p1097
asVdeleteAdvertiser
p1098
(lp1099
ssg13
(dp1100
VgetPlacementTagData
p1101
(lp1102
VPlacementTagData
p1103
asVgetPlacementTypes
p1104
(lp1105
VArrayOfPlacementType
p1106
asVdeletePlacementGroup
p1107
(lp1108
sVgetPlacement
p1109
(lp1110
VPlacement
p1111
asVgetPricingTypes
p1112
(lp1113
VArrayOfPricingType
p1114
asVgetPlacementGroup
p1115
(lp1116
VPlacementGroup
p1117
asVdeletePlacement
p1118
(lp1119
sVgetInterstitialPlacementTagOptions
p1120
(lp1121
VArrayOfPlacementTagOption
p1122
asVgetMobilePlacementTagOptions
p1123
(lp1124
VArrayOfPlacementTagOption
p1125
asVupdatePlacements
p1126
(lp1127
VPlacementUpdateResultSet
p1128
asVgetInStreamVideoPlacementTagOptions
p1129
(lp1130
VArrayOfPlacementTagOption
p1131
asVgetPlacementsByCriteria
p1132
(lp1133
VPlacementRecordSet
p1134
asVgetPlacementGroupTypes
p1135
(lp1136
VArrayOfPlacementGroupType
p1137
asVgetPlacementGroupsByCriteria
p1138
(lp1139
VPlacementGroupRecordSet
p1140
asVgetRegularPlacementTagOptions
p1141
(lp1142
VArrayOfPlacementTagOption
p1143
asVsavePlacementGroup
p1144
(lp1145
VPlacementGroupSaveResult
p1146
asVsavePlacement
p1147
(lp1148
VPlacementSaveResult
p1149
assS'ad'
p1150
(dp1151
VgetBandwidths
p1152
(lp1153
VArrayOfBandwidth
p1154
asVgetAd
p1155
(lp1156
VAdBase
p1157
asVgetCities
p1158
(lp1159
VArrayOfCity
p1160
asVupdateCreativeAssignmentProperties
p1161
(lp1162
VCreativeAdAssociationSaveResultSet
p1163
asVgetOSPs
p1164
(lp1165
VArrayOfOSP
p1166
asVgetOperatingSystems
p1167
(lp1168
VArrayOfOperatingSystem
p1169
asVgetBrowsers
p1170
(lp1171
VArrayOfBrowser
p1172
asVgetCountries
p1173
(lp1174
VArrayOfCountry
p1175
asVgetMobilePlatforms
p1176
(lp1177
VArrayOfMobilePlatform
p1178
asVgetUserListsByCriteria
p1179
(lp1180
VArrayOfUserList
p1181
asVgetUserListGroupsByCriteria
p1182
(lp1183
VArrayOfUserListGroup
p1184
asVgetAds
p1185
(lp1186
VAdRecordSet
p1187
asVoverrideAdProperties
p1188
(lp1189
VOverridableAdPropertiesSaveResult
p1190
asVdeleteAd
p1191
(lp1192
sVgetAreaCodes
p1193
(lp1194
VArrayOfAreaCode
p1195
asVsaveAd
p1196
(lp1197
VAdSaveResult
p1198
asVgetAdTypes
p1199
(lp1200
VArrayOfAdType
p1201
asVgetRegions
p1202
(lp1203
VArrayOfRegion
p1204
asVgetStates
p1205
(lp1206
VArrayOfState
p1207
asVcopyAds
p1208
(lp1209
VArrayOfAdCopyResult
p1210
asVgetDesignatedMarketAreas
p1211
(lp1212
VArrayOfDesignatedMarketArea
p1213
asVgetDomainTypes
p1214
(lp1215
VArrayOfDomainType
p1216
asVgetISPs
p1217
(lp1218
VArrayOfISP
p1219
asVgetDomainNamesBySearchCriteria
p1220
(lp1221
VDomainNameRecordSet
p1222
assg137
(dp1223
VsaveCampaign
p1224
(lp1225
VCampaignSaveResult
p1226
asVsaveLandingPage
p1227
(lp1228
VLandingPageSaveResult
p1229
asVgetCampaign
p1230
(lp1231
VCampaign
p1232
asVmigrateCampaign
p1233
(lp1234
VCampaignMigrationResult
p1235
asVgetCampaignsByCriteria
p1236
(lp1237
VCampaignRecordSet
p1238
asVdeleteCampaign
p1239
(lp1240
sVgetLandingPagesForCampaign
p1241
(lp1242
VLandingPageRecordSet
p1243
asVaddLandingPageToCampaign
p1244
(lp1245
Vxsd:boolean
p1246
asVcopyCampaigns
p1247
(lp1248
VArrayOfCampaignCopyResult
p1249
assg165
(dp1250
VgetChangeLogObjectTypes
p1251
(lp1252
VArrayOfChangeLogObjectType
p1253
asVgetChangeLogRecords
p1254
(lp1255
VChangeLogRecordSet
p1256
asVgetChangeLogRecordForObjectType
p1257
(lp1258
VChangeLogRecord
p1259
asVgetChangeLogRecord
p1260
(lp1261
VChangeLogRecord
p1262
asVupdateChangeLogRecordComments
p1263
(lp1264
sVupdateChangeLogRecordCommentsForObjectType
p1265
(lp1266
ssg183
(dp1267
VsaveCreativeGroup
p1268
(lp1269
VCreativeGroupSaveResult
p1270
asVgetCreativeGroup
p1271
(lp1272
VCreativeGroup
p1273
asVgetCreativeGroups
p1274
(lp1275
VCreativeGroupRecordSet
p1276
asVdeleteCreativeGroup
p1277
(lp1278
ssS'site'
p1279
(dp1280
VgetDfaSite
p1281
(lp1282
VDfaSite
p1283
asVgetAvailableDfaSiteContactTypes
p1284
(lp1285
VArrayOfDfaSiteContactType
p1286
asVgetContacts
p1287
(lp1288
VContactRecordSet
p1289
asVlinkDfaSitesToSiteDirectorySites
p1290
(lp1291
VArrayOfSiteDirectoryDfaSiteMappingResult
p1292
asVimportSiteDirectorySites
p1293
(lp1294
VArrayOfSiteDirectorySiteImportResult
p1295
asVsaveDfaSite
p1296
(lp1297
VDfaSiteSaveResult
p1298
asVgetSitesByCriteria
p1299
(lp1300
VSiteRecordSet
p1301
asVlinkDfaSiteToSiteDirectorySite
p1302
(lp1303
sVsaveSiteDirectorySite
p1304
(lp1305
VSiteSaveResult
p1306
asVgetDfaSites
p1307
(lp1308
VDfaSiteRecordSet
p1309
assg227
(dp1310
VgetAvailablePermissions
p1311
(lp1312
VArrayOfPermission
p1313
asVgetUserRoleSummaries
p1314
(lp1315
VUserRoleSummaryRecordSet
p1316
asVsaveUserRole
p1317
(lp1318
VUserRoleSaveResult
p1319
asVgetUserRole
p1320
(lp1321
VUserRole
p1322
asVgetUserRoles
p1323
(lp1324
VUserRoleRecordSet
p1325
asVdeleteUserRole
p1326
(lp1327
ssg246
(dp1328
VcopyCreative
p1329
(lp1330
VArrayOfCreativeCopyResult
p1331
asVdeleteCreative
p1332
(lp1333
sVreplaceRichMediaCreativePackage
p1334
(lp1335
VRichMediaCreativeBase
p1336
asVgetAssignedCreativeGroupsToCreative
p1337
(lp1338
VCreativeGroupRecordSet
p1339
asVgetCreative
p1340
(lp1341
VCreativeBase
p1342
asVassociateCreativesToCampaign
p1343
(lp1344
VArrayOfCreativeCampaignAssociationResult
p1345
asVassignCreativeGroupsToCreative
p1346
(lp1347
sVsaveCreative
p1348
(lp1349
VCreativeSaveResult
p1350
asVgetCreatives
p1351
(lp1352
VCreativeRecordSet
p1353
asVgetCreativeRenderings
p1354
(lp1355
VArrayOfCreativeRenderingResult
p1356
asVgenerateCreativeUploadSession
p1357
(lp1358
VCreativeUploadSession
p1359
asVassignCreativesToPlacements
p1360
(lp1361
VArrayOfCreativePlacementAssignmentResult
p1362
asVgetCreativeAssets
p1363
(lp1364
VCreativeAssetRecordSet
p1365
asVdeleteRichMediaAsset
p1366
(lp1367
VRichMediaCreativeBase
p1368
asVgetCompleteCreativeUploadSession
p1369
(lp1370
VCreativeUploadSession
p1371
asVsaveCreativeAsset
p1372
(lp1373
VCreativeAssetSaveResult
p1374
asVuploadCreativeFiles
p1375
(lp1376
VCreativeUploadSession
p1377
asVgetRichMediaPreviewURL
p1378
(lp1379
Vsoapenc:string
p1380
asVuploadRichMediaCreativePackage
p1381
(lp1382
VRichMediaCreativeBase
p1383
asVgetCreativeTypes
p1384
(lp1385
VArrayOfCreativeType
p1386
asVcreateCreativesFromCreativeUploadSession
p1387
(lp1388
VCreativeUploadSession
p1389
asVreplaceRichMediaAsset
p1390
(lp1391
VRichMediaCreativeBase
p1392
asVuploadRichMediaAsset
p1393
(lp1394
VRichMediaCreativeBase
p1395
assg315
(dp1396
VsaveCreativeFieldValue
p1397
(lp1398
VCreativeFieldValueSaveResult
p1399
asVsaveCreativeField
p1400
(lp1401
VCreativeFieldSaveResult
p1402
asVdeleteCreativeField
p1403
(lp1404
sVgetCreativeFieldValue
p1405
(lp1406
VCreativeFieldValue
p1407
asVgetCreativeFieldValues
p1408
(lp1409
VCreativeFieldValueRecordSet
p1410
asVgetCreativeFields
p1411
(lp1412
VCreativeFieldRecordSet
p1413
asVdeleteCreativeFieldValue
p1414
(lp1415
sVgetCreativeField
p1416
(lp1417
VCreativeField
p1418
assg339
(dp1419
VsavePlacementStrategy
p1420
(lp1421
VPlacementStrategySaveResult
p1422
asVgetPlacementStrategiesByCriteria
p1423
(lp1424
VPlacementStrategyRecordSet
p1425
asVdeletePlacementStrategy
p1426
(lp1427
sVgetPlacementStrategy
p1428
(lp1429
VPlacementStrategy
p1430
assg352
(dp1431
VdeleteContentCategory
p1432
(lp1433
sVgetContentCategory
p1434
(lp1435
VContentCategory
p1436
asVsaveContentCategory
p1437
(lp1438
VContentCategorySaveResult
p1439
asVgetContentCategories
p1440
(lp1441
VContentCategoryRecordSet
p1442
assS'user'
p1443
(dp1444
VgetAvailableUserFilterTypes
p1445
(lp1446
VArrayOfUserFilterType
p1447
asVgetUsersByCriteria
p1448
(lp1449
VUserRecordSet
p1450
asVgenerateUniqueUsername
p1451
(lp1452
Vsoapenc:string
p1453
asVgetUser
p1454
(lp1455
VUser
p1456
asVsendUserInvitationEmail
p1457
(lp1458
sVsaveUser
p1459
(lp1460
VUserSaveResult
p1461
asVgetAvailableUserFilterCriteriaTypes
p1462
(lp1463
VArrayOfUserFilterCriteriaType
p1464
asVgetAvailableTraffickerTypes
p1465
(lp1466
VArrayOfTraffickerType
p1467
assg390
(dp1468
VgetAdvertiserGroup
p1469
(lp1470
VAdvertiserGroup
p1471
asVassignAdvertisersToAdvertiserGroup
p1472
(lp1473
sVgetAdvertiserGroups
p1474
(lp1475
VAdvertiserGroupRecordSet
p1476
asVdeleteAdvertiserGroup
p1477
(lp1478
sVsaveAdvertiserGroup
p1479
(lp1480
VAdvertiserGroupSaveResult
p1481
assg405
(dp1482
VrunDeferredReport
p1483
(lp1484
VReportInfo
p1485
asVgetReport
p1486
(lp1487
VReportInfo
p1488
asVgetReportsByCriteria
p1489
(lp1490
VReportInfoRecordSet
p1491
assS'login'
p1492
(dp1493
VimpersonateUser
p1494
(lp1495
VUserProfile
p1496
asVauthenticate
p1497
(lp1498
VUserProfile
p1499
asVimpersonateNetwork
p1500
(lp1501
VUserProfile
p1502
asVchangePassword
p1503
(lp1504
VUserProfile
p1505
assS'size'
p1506
(dp1507
VgetSize
p1508
(lp1509
VSize
p1510
asVsaveSize
p1511
(lp1512
VSizeSaveResult
p1513
asVgetSizes
p1514
(lp1515
VSizeRecordSet
p1516
assg441
(dp1517
VdeleteSpotlightActivityGroup
p1518
(lp1519
sVgetAvailableCustomSpotlightVariables
p1520
(lp1521
VArrayOfCustomSpotlightVariable
p1522
asVgetSpotlightActivity
p1523
(lp1524
VSpotlightActivity
p1525
asVgetSpotlightActivityTypes
p1526
(lp1527
VArrayOfSpotlightActivityType
p1528
asVgetSpotlightTagFormatTypes
p1529
(lp1530
VArrayOfSpotlightTagFormatType
p1531
asVgetSpotlightConfiguration
p1532
(lp1533
VSpotlightConfiguration
p1534
asVsaveSpotlightConfiguration
p1535
(lp1536
VSpotlightConfigurationSaveResult
p1537
asVupdateActivityImageTags
p1538
(lp1539
VArrayOfSpotlightActivityImageTagsSaveResult
p1540
asVgetCountriesByCriteria
p1541
(lp1542
VArrayOfCountry
p1543
asVsaveSpotlightActivityGroup
p1544
(lp1545
VSpotlightActivityGroupSaveResult
p1546
asVgetAvailableStandardVariables
p1547
(lp1548
VArrayOfStandardVariable
p1549
asVgetSpotlightActivities
p1550
(lp1551
VSpotlightActivityRecordSet
p1552
asVsaveSpotlightActivity
p1553
(lp1554
VSpotlightActivitySaveResult
p1555
asVgetSpotlightTagMethodTypes
p1556
(lp1557
VArrayOfSpotlightTagMethodType
p1558
asVdeleteSpotlightActivity
p1559
(lp1560
sVgenerateTags
p1561
(lp1562
Vsoapenc:string
p1563
asVgetSpotlightTagCodeTypes
p1564
(lp1565
VArrayOfSpotlightTagCodeType
p1566
asVgetSpotlightActivityGroups
p1567
(lp1568
VSpotlightActivityGroupRecordSet
p1569
assg495
(dp1570
VsaveSubnetwork
p1571
(lp1572
VSubnetworkSaveResult
p1573
asVgetSubnetworkSummaries
p1574
(lp1575
VSubnetworkSummaryRecordSet
p1576
asVgetSubnetwork
p1577
(lp1578
VSubnetwork
p1579
asVgetAllAvailablePermissions
p1580
(lp1581
VArrayOfPermission
p1582
asVgetSubnetworks
p1583
(lp1584
VSubnetworkRecordSet
p1585
asVgetDefaultPermissions
p1586
(lp1587
VArrayOfPermission
p1588
assg515
(dp1589
VgetAssignedNetworkPermissions
p1590
(lp1591
VArrayOfNetworkPermission
p1592
asVsaveNetwork
p1593
(lp1594
VNetworkSaveResult
p1595
asVgetAdministratorPermissions
p1596
(lp1597
VArrayOfAdministratorPermission
p1598
asVgetLanguageEncodingList
p1599
(lp1600
VArrayOfLanguageEncoding
p1601
asVgetCurrencies
p1602
(lp1603
VArrayOfCurrency
p1604
asVgetTimeZoneList
p1605
(lp1606
VArrayOfTimeZone
p1607
asVuploadNetworkWidgetImage
p1608
(lp1609
VWidgetImageUploadResponse
p1610
asVgetNetworks
p1611
(lp1612
VNetworkRecordSet
p1613
asVgetAllNetworkPermissions
p1614
(lp1615
VArrayOfNetworkPermission
p1616
asVgetNetwork
p1617
(lp1618
VNetwork
p1619
asVgetAllPermissions
p1620
(lp1621
VArrayOfPermission
p1622
asss.