(dp0
S'v1.13'
p1
(dp2
S'advertiser'
p3
(dp4
VgetAdvertisers
p5
(lp6
VAdvertiserRecordSet
p7
asVsaveAdvertiser
p8
(lp9
VAdvertiserSaveResult
p10
asVdeleteAdvertiser
p11
(lp12
ssS'placement'
p13
(dp14
VgetPlacementTagData
p15
(lp16
VPlacementTagData
p17
asVgetPlacementTypes
p18
(lp19
VArrayOfPlacementType
p20
asVdeletePlacementGroup
p21
(lp22
sVgetPlacement
p23
(lp24
VPlacement
p25
asVgetPricingTypes
p26
(lp27
VArrayOfPricingType
p28
asVgetPlacementGroup
p29
(lp30
VPlacementGroup
p31
asVdeletePlacement
p32
(lp33
sVgetInterstitialPlacementTagOptions
p34
(lp35
VArrayOfPlacementTagOption
p36
asVgetMobilePlacementTagOptions
p37
(lp38
VArrayOfPlacementTagOption
p39
asVupdatePlacements
p40
(lp41
VPlacementUpdateResultSet
p42
asVgetInStreamVideoPlacementTagOptions
p43
(lp44
VArrayOfPlacementTagOption
p45
asVgetPlacementsByCriteria
p46
(lp47
VPlacementRecordSet
p48
asVgetPlacementGroupTypes
p49
(lp50
VArrayOfPlacementGroupType
p51
asVgetPlacementGroupsByCriteria
p52
(lp53
VPlacementGroupRecordSet
p54
asVgetRegularPlacementTagOptions
p55
(lp56
VArrayOfPlacementTagOption
p57
asVsavePlacementGroup
p58
(lp59
VPlacementGroupSaveResult
p60
asVsavePlacement
p61
(lp62
VPlacementSaveResult
p63
assS'ad'
p64
(dp65
VgetBandwidths
p66
(lp67
VArrayOfBandwidth
p68
asVgetAd
p69
(lp70
VAdBase
p71
asVgetCities
p72
(lp73
VArrayOfCity
p74
asVupdateCreativeAssignmentProperties
p75
(lp76
VCreativeAdAssociationSaveResultSet
p77
asVgetOSPs
p78
(lp79
VArrayOfOSP
p80
asVgetOperatingSystems
p81
(lp82
VArrayOfOperatingSystem
p83
asVgetBrowsers
p84
(lp85
VArrayOfBrowser
p86
asVgetCountries
p87
(lp88
VArrayOfCountry
p89
asVgetMobilePlatforms
p90
(lp91
VArrayOfMobilePlatform
p92
asVgetUserListsByCriteria
p93
(lp94
VArrayOfUserList
p95
asVgetUserListGroupsByCriteria
p96
(lp97
VArrayOfUserListGroup
p98
asVgetAds
p99
(lp100
VAdRecordSet
p101
asVoverrideAdProperties
p102
(lp103
VOverridableAdPropertiesSaveResult
p104
asVdeleteAd
p105
(lp106
sVgetAreaCodes
p107
(lp108
VArrayOfAreaCode
p109
asVsaveAd
p110
(lp111
VAdSaveResult
p112
asVgetAdTypes
p113
(lp114
VArrayOfAdType
p115
asVgetRegions
p116
(lp117
VArrayOfRegion
p118
asVgetStates
p119
(lp120
VArrayOfState
p121
asVcopyAds
p122
(lp123
VArrayOfAdCopyResult
p124
asVgetDesignatedMarketAreas
p125
(lp126
VArrayOfDesignatedMarketArea
p127
asVgetDomainTypes
p128
(lp129
VArrayOfDomainType
p130
asVgetISPs
p131
(lp132
VArrayOfISP
p133
asVgetDomainNamesBySearchCriteria
p134
(lp135
VDomainNameRecordSet
p136
assS'campaign'
p137
(dp138
VsaveCampaign
p139
(lp140
VCampaignSaveResult
p141
asVsaveLandingPage
p142
(lp143
VLandingPageSaveResult
p144
asVgetCampaign
p145
(lp146
VCampaign
p147
asVmigrateCampaign
p148
(lp149
VCampaignMigrationResult
p150
asVgetCampaignsByCriteria
p151
(lp152
VCampaignRecordSet
p153
asVdeleteCampaign
p154
(lp155
sVgetLandingPagesForCampaign
p156
(lp157
VLandingPageRecordSet
p158
asVaddLandingPageToCampaign
p159
(lp160
Vxsd:boolean
p161
asVcopyCampaigns
p162
(lp163
VArrayOfCampaignCopyResult
p164
assS'changelog'
p165
(dp166
VgetChangeLogObjectTypes
p167
(lp168
VArrayOfChangeLogObjectType
p169
asVgetChangeLogRecords
p170
(lp171
VChangeLogRecordSet
p172
asVgetChangeLogRecordForObjectType
p173
(lp174
VChangeLogRecord
p175
asVgetChangeLogRecord
p176
(lp177
VChangeLogRecord
p178
asVupdateChangeLogRecordComments
p179
(lp180
sVupdateChangeLogRecordCommentsForObjectType
p181
(lp182
ssS'creativegroup'
p183
(dp184
VsaveCreativeGroup
p185
(lp186
VCreativeGroupSaveResult
p187
asVgetCreativeGroup
p188
(lp189
VCreativeGroup
p190
asVgetCreativeGroups
p191
(lp192
VCreativeGroupRecordSet
p193
asVdeleteCreativeGroup
p194
(lp195
ssS'site'
p196
(dp197
VgetDfaSite
p198
(lp199
VDfaSite
p200
asVgetAvailableDfaSiteContactTypes
p201
(lp202
VArrayOfDfaSiteContactType
p203
asVgetContacts
p204
(lp205
VContactRecordSet
p206
asVlinkDfaSitesToSiteDirectorySites
p207
(lp208
VArrayOfSiteDirectoryDfaSiteMappingResult
p209
asVimportSiteDirectorySites
p210
(lp211
VArrayOfSiteDirectorySiteImportResult
p212
asVsaveDfaSite
p213
(lp214
VDfaSiteSaveResult
p215
asVgetSitesByCriteria
p216
(lp217
VSiteRecordSet
p218
asVlinkDfaSiteToSiteDirectorySite
p219
(lp220
sVsaveSiteDirectorySite
p221
(lp222
VSiteSaveResult
p223
asVgetDfaSites
p224
(lp225
VDfaSiteRecordSet
p226
assS'userrole'
p227
(dp228
VgetAvailablePermissions
p229
(lp230
VArrayOfPermission
p231
asVgetUserRoleSummaries
p232
(lp233
VUserRoleSummaryRecordSet
p234
asVsaveUserRole
p235
(lp236
VUserRoleSaveResult
p237
asVgetUserRole
p238
(lp239
VUserRole
p240
asVgetUserRoles
p241
(lp242
VUserRoleRecordSet
p243
asVdeleteUserRole
p244
(lp245
ssS'creative'
p246
(dp247
VcopyCreative
p248
(lp249
VArrayOfCreativeCopyResult
p250
asVdeleteCreative
p251
(lp252
sVreplaceRichMediaCreativePackage
p253
(lp254
VRichMediaCreativeBase
p255
asVgetAssignedCreativeGroupsToCreative
p256
(lp257
VCreativeGroupRecordSet
p258
asVgetCreative
p259
(lp260
VCreativeBase
p261
asVassociateCreativesToCampaign
p262
(lp263
VArrayOfCreativeCampaignAssociationResult
p264
asVassignCreativeGroupsToCreative
p265
(lp266
sVsaveCreative
p267
(lp268
VCreativeSaveResult
p269
asVgetCreatives
p270
(lp271
VCreativeRecordSet
p272
asVgetCreativeRenderings
p273
(lp274
VArrayOfCreativeRenderingResult
p275
asVgenerateCreativeUploadSession
p276
(lp277
VCreativeUploadSession
p278
asVassignCreativesToPlacements
p279
(lp280
VArrayOfCreativePlacementAssignmentResult
p281
asVgetCreativeAssets
p282
(lp283
VCreativeAssetRecordSet
p284
asVdeleteRichMediaAsset
p285
(lp286
VRichMediaCreativeBase
p287
asVgetCompleteCreativeUploadSession
p288
(lp289
VCreativeUploadSession
p290
asVsaveCreativeAsset
p291
(lp292
VCreativeAssetSaveResult
p293
asVuploadCreativeFiles
p294
(lp295
VCreativeUploadSession
p296
asVgetRichMediaPreviewURL
p297
(lp298
Vsoapenc:string
p299
asVuploadRichMediaCreativePackage
p300
(lp301
VRichMediaCreativeBase
p302
asVgetCreativeTypes
p303
(lp304
VArrayOfCreativeType
p305
asVcreateCreativesFromCreativeUploadSession
p306
(lp307
VCreativeUploadSession
p308
asVreplaceRichMediaAsset
p309
(lp310
VRichMediaCreativeBase
p311
asVuploadRichMediaAsset
p312
(lp313
VRichMediaCreativeBase
p314
assS'creativefield'
p315
(dp316
VsaveCreativeFieldValue
p317
(lp318
VCreativeFieldValueSaveResult
p319
asVsaveCreativeField
p320
(lp321
VCreativeFieldSaveResult
p322
asVdeleteCreativeField
p323
(lp324
sVgetCreativeFieldValue
p325
(lp326
VCreativeFieldValue
p327
asVgetCreativeFieldValues
p328
(lp329
VCreativeFieldValueRecordSet
p330
asVgetCreativeFields
p331
(lp332
VCreativeFieldRecordSet
p333
asVdeleteCreativeFieldValue
p334
(lp335
sVgetCreativeField
p336
(lp337
VCreativeField
p338
assS'strategy'
p339
(dp340
VsavePlacementStrategy
p341
(lp342
VPlacementStrategySaveResult
p343
asVgetPlacementStrategiesByCriteria
p344
(lp345
VPlacementStrategyRecordSet
p346
asVdeletePlacementStrategy
p347
(lp348
sVgetPlacementStrategy
p349
(lp350
VPlacementStrategy
p351
assS'contentcategory'
p352
(dp353
VdeleteContentCategory
p354
(lp355
sVgetContentCategory
p356
(lp357
VContentCategory
p358
asVsaveContentCategory
p359
(lp360
VContentCategorySaveResult
p361
asVgetContentCategories
p362
(lp363
VContentCategoryRecordSet
p364
assS'user'
p365
(dp366
VgetAvailableUserFilterTypes
p367
(lp368
VArrayOfUserFilterType
p369
asVgetUsersByCriteria
p370
(lp371
VUserRecordSet
p372
asVgenerateUniqueUsername
p373
(lp374
Vsoapenc:string
p375
asVgetUser
p376
(lp377
VUser
p378
asVsendUserInvitationEmail
p379
(lp380
sVsaveUser
p381
(lp382
VUserSaveResult
p383
asVgetAvailableUserFilterCriteriaTypes
p384
(lp385
VArrayOfUserFilterCriteriaType
p386
asVgetAvailableTraffickerTypes
p387
(lp388
VArrayOfTraffickerType
p389
assS'advertisergroup'
p390
(dp391
VgetAdvertiserGroup
p392
(lp393
VAdvertiserGroup
p394
asVassignAdvertisersToAdvertiserGroup
p395
(lp396
sVgetAdvertiserGroups
p397
(lp398
VAdvertiserGroupRecordSet
p399
asVdeleteAdvertiserGroup
p400
(lp401
sVsaveAdvertiserGroup
p402
(lp403
VAdvertiserGroupSaveResult
p404
assS'report'
p405
(dp406
VrunDeferredReport
p407
(lp408
VReportInfo
p409
asVgetReport
p410
(lp411
VReportInfo
p412
asVgetReportsByCriteria
p413
(lp414
VReportInfoRecordSet
p415
assS'login'
p416
(dp417
VimpersonateUser
p418
(lp419
VUserProfile
p420
asVauthenticate
p421
(lp422
VUserProfile
p423
asVimpersonateNetwork
p424
(lp425
VUserProfile
p426
asVchangePassword
p427
(lp428
VUserProfile
p429
assS'size'
p430
(dp431
VgetSize
p432
(lp433
VSize
p434
asVsaveSize
p435
(lp436
VSizeSaveResult
p437
asVgetSizes
p438
(lp439
VSizeRecordSet
p440
assS'spotlight'
p441
(dp442
VdeleteSpotlightActivityGroup
p443
(lp444
sVgetAvailableCustomSpotlightVariables
p445
(lp446
VArrayOfCustomSpotlightVariable
p447
asVgetSpotlightActivity
p448
(lp449
VSpotlightActivity
p450
asVgetSpotlightActivityTypes
p451
(lp452
VArrayOfSpotlightActivityType
p453
asVgetSpotlightTagFormatTypes
p454
(lp455
VArrayOfSpotlightTagFormatType
p456
asVgetSpotlightConfiguration
p457
(lp458
VSpotlightConfiguration
p459
asVsaveSpotlightConfiguration
p460
(lp461
VSpotlightConfigurationSaveResult
p462
asVupdateActivityImageTags
p463
(lp464
VArrayOfSpotlightActivityImageTagsSaveResult
p465
asVgetCountriesByCriteria
p466
(lp467
VArrayOfCountry
p468
asVsaveSpotlightActivityGroup
p469
(lp470
VSpotlightActivityGroupSaveResult
p471
asVgetAvailableStandardVariables
p472
(lp473
VArrayOfStandardVariable
p474
asVgetSpotlightActivities
p475
(lp476
VSpotlightActivityRecordSet
p477
asVsaveSpotlightActivity
p478
(lp479
VSpotlightActivitySaveResult
p480
asVgetSpotlightTagMethodTypes
p481
(lp482
VArrayOfSpotlightTagMethodType
p483
asVdeleteSpotlightActivity
p484
(lp485
sVgenerateTags
p486
(lp487
Vsoapenc:string
p488
asVgetSpotlightTagCodeTypes
p489
(lp490
VArrayOfSpotlightTagCodeType
p491
asVgetSpotlightActivityGroups
p492
(lp493
VSpotlightActivityGroupRecordSet
p494
assS'subnetwork'
p495
(dp496
VsaveSubnetwork
p497
(lp498
VSubnetworkSaveResult
p499
asVgetSubnetworkSummaries
p500
(lp501
VSubnetworkSummaryRecordSet
p502
asVgetSubnetwork
p503
(lp504
VSubnetwork
p505
asVgetAllAvailablePermissions
p506
(lp507
VArrayOfPermission
p508
asVgetSubnetworks
p509
(lp510
VSubnetworkRecordSet
p511
asVgetDefaultPermissions
p512
(lp513
VArrayOfPermission
p514
assS'network'
p515
(dp516
VgetAssignedNetworkPermissions
p517
(lp518
VArrayOfNetworkPermission
p519
asVsaveNetwork
p520
(lp521
VNetworkSaveResult
p522
asVgetAdministratorPermissions
p523
(lp524
VArrayOfAdministratorPermission
p525
asVgetLanguageEncodingList
p526
(lp527
VArrayOfLanguageEncoding
p528
asVgetCurrencies
p529
(lp530
VArrayOfCurrency
p531
asVgetTimeZoneList
p532
(lp533
VArrayOfTimeZone
p534
asVuploadNetworkWidgetImage
p535
(lp536
VWidgetImageUploadResponse
p537
asVgetNetworks
p538
(lp539
VNetworkRecordSet
p540
asVgetAllNetworkPermissions
p541
(lp542
VArrayOfNetworkPermission
p543
asVgetNetwork
p544
(lp545
VNetwork
p546
asVgetAllPermissions
p547
(lp548
VArrayOfPermission
p549
asssS'v1.12'
p550
(dp551
g3
(dp552
VgetAdvertisers
p553
(lp554
VAdvertiserRecordSet
p555
asVsaveAdvertiser
p556
(lp557
VAdvertiserSaveResult
p558
asVdeleteAdvertiser
p559
(lp560
ssg13
(dp561
VgetPlacementTagData
p562
(lp563
VPlacementTagData
p564
asVgetPlacementTypes
p565
(lp566
VArrayOfPlacementType
p567
asVdeletePlacementGroup
p568
(lp569
sVgetPlacement
p570
(lp571
VPlacement
p572
asVgetPricingTypes
p573
(lp574
VArrayOfPricingType
p575
asVgetPlacementGroup
p576
(lp577
VPlacementGroup
p578
asVdeletePlacement
p579
(lp580
sVgetInterstitialPlacementTagOptions
p581
(lp582
VArrayOfPlacementTagOption
p583
asVgetMobilePlacementTagOptions
p584
(lp585
VArrayOfPlacementTagOption
p586
asVupdatePlacements
p587
(lp588
VPlacementUpdateResultSet
p589
asVgetInStreamVideoPlacementTagOptions
p590
(lp591
VArrayOfPlacementTagOption
p592
asVgetPlacementsByCriteria
p593
(lp594
VPlacementRecordSet
p595
asVgetPlacementGroupTypes
p596
(lp597
VArrayOfPlacementGroupType
p598
asVgetPlacementGroupsByCriteria
p599
(lp600
VPlacementGroupRecordSet
p601
asVgetRegularPlacementTagOptions
p602
(lp603
VArrayOfPlacementTagOption
p604
asVsavePlacementGroup
p605
(lp606
VPlacementGroupSaveResult
p607
asVsavePlacement
p608
(lp609
VPlacementSaveResult
p610
assg64
(dp611
VgetBandwidths
p612
(lp613
VArrayOfBandwidth
p614
asVgetAd
p615
(lp616
VAdBase
p617
asVgetCities
p618
(lp619
VArrayOfCity
p620
asVupdateCreativeAssignmentProperties
p621
(lp622
VCreativeAdAssociationSaveResultSet
p623
asVgetOSPs
p624
(lp625
VArrayOfOSP
p626
asVgetOperatingSystems
p627
(lp628
VArrayOfOperatingSystem
p629
asVgetBrowsers
p630
(lp631
VArrayOfBrowser
p632
asVgetCountries
p633
(lp634
VArrayOfCountry
p635
asVgetMobilePlatforms
p636
(lp637
VArrayOfMobilePlatform
p638
asVgetUserListsByCriteria
p639
(lp640
VArrayOfUserList
p641
asVgetUserListGroupsByCriteria
p642
(lp643
VArrayOfUserListGroup
p644
asVgetAds
p645
(lp646
VAdRecordSet
p647
asVoverrideAdProperties
p648
(lp649
VOverridableAdPropertiesSaveResult
p650
asVdeleteAd
p651
(lp652
sVgetAreaCodes
p653
(lp654
VArrayOfAreaCode
p655
asVsaveAd
p656
(lp657
VAdSaveResult
p658
asVgetAdTypes
p659
(lp660
VArrayOfAdType
p661
asVgetRegions
p662
(lp663
VArrayOfRegion
p664
asVgetStates
p665
(lp666
VArrayOfState
p667
asVcopyAds
p668
(lp669
VArrayOfAdCopyResult
p670
asVgetDesignatedMarketAreas
p671
(lp672
VArrayOfDesignatedMarketArea
p673
asVgetDomainTypes
p674
(lp675
VArrayOfDomainType
p676
asVgetISPs
p677
(lp678
VArrayOfISP
p679
asVgetDomainNamesBySearchCriteria
p680
(lp681
VDomainNameRecordSet
p682
assg137
(dp683
VsaveCampaign
p684
(lp685
VCampaignSaveResult
p686
asVsaveLandingPage
p687
(lp688
VLandingPageSaveResult
p689
asVgetCampaign
p690
(lp691
VCampaign
p692
asVmigrateCampaign
p693
(lp694
VCampaignMigrationResult
p695
asVgetCampaignsByCriteria
p696
(lp697
VCampaignRecordSet
p698
asVdeleteCampaign
p699
(lp700
sVgetLandingPagesForCampaign
p701
(lp702
VLandingPageRecordSet
p703
asVaddLandingPageToCampaign
p704
(lp705
Vxsd:boolean
p706
asVcopyCampaigns
p707
(lp708
VArrayOfCampaignCopyResult
p709
assg165
(dp710
VgetChangeLogObjectTypes
p711
(lp712
VArrayOfChangeLogObjectType
p713
asVgetChangeLogRecords
p714
(lp715
VChangeLogRecordSet
p716
asVgetChangeLogRecordForObjectType
p717
(lp718
VChangeLogRecord
p719
asVgetChangeLogRecord
p720
(lp721
VChangeLogRecord
p722
asVupdateChangeLogRecordComments
p723
(lp724
sVupdateChangeLogRecordCommentsForObjectType
p725
(lp726
ssg183
(dp727
VsaveCreativeGroup
p728
(lp729
VCreativeGroupSaveResult
p730
asVgetCreativeGroup
p731
(lp732
VCreativeGroup
p733
asVgetCreativeGroups
p734
(lp735
VCreativeGroupRecordSet
p736
asVdeleteCreativeGroup
p737
(lp738
ssg196
(dp739
VgetDfaSite
p740
(lp741
VDfaSite
p742
asVgetAvailableDfaSiteContactTypes
p743
(lp744
VArrayOfDfaSiteContactType
p745
asVgetContacts
p746
(lp747
VContactRecordSet
p748
asVlinkDfaSitesToSiteDirectorySites
p749
(lp750
VArrayOfSiteDirectoryDfaSiteMappingResult
p751
asVimportSiteDirectorySites
p752
(lp753
VArrayOfSiteDirectorySiteImportResult
p754
asVsaveDfaSite
p755
(lp756
VDfaSiteSaveResult
p757
asVgetSitesByCriteria
p758
(lp759
VSiteRecordSet
p760
asVlinkDfaSiteToSiteDirectorySite
p761
(lp762
sVsaveSiteDirectorySite
p763
(lp764
VSiteSaveResult
p765
asVgetDfaSites
p766
(lp767
VDfaSiteRecordSet
p768
assg246
(dp769
VcopyCreative
p770
(lp771
VArrayOfCreativeCopyResult
p772
asVdeleteCreative
p773
(lp774
sVreplaceRichMediaCreativePackage
p775
(lp776
VRichMediaCreativeBase
p777
asVgetAssignedCreativeGroupsToCreative
p778
(lp779
VCreativeGroupRecordSet
p780
asVgetCreative
p781
(lp782
VCreativeBase
p783
asVassociateCreativesToCampaign
p784
(lp785
VArrayOfCreativeCampaignAssociationResult
p786
asVassignCreativeGroupsToCreative
p787
(lp788
sVsaveCreative
p789
(lp790
VCreativeSaveResult
p791
asVgetCreatives
p792
(lp793
VCreativeRecordSet
p794
asVgetCreativeRenderings
p795
(lp796
VArrayOfCreativeRenderingResult
p797
asVgenerateCreativeUploadSession
p798
(lp799
VCreativeUploadSession
p800
asVassignCreativesToPlacements
p801
(lp802
VArrayOfCreativePlacementAssignmentResult
p803
asVgetCreativeAssets
p804
(lp805
VCreativeAssetRecordSet
p806
asVdeleteRichMediaAsset
p807
(lp808
VRichMediaCreativeBase
p809
asVgetCompleteCreativeUploadSession
p810
(lp811
VCreativeUploadSession
p812
asVsaveCreativeAsset
p813
(lp814
VCreativeAssetSaveResult
p815
asVuploadCreativeFiles
p816
(lp817
VCreativeUploadSession
p818
asVgetRichMediaPreviewURL
p819
(lp820
Vsoapenc:string
p821
asVuploadRichMediaCreativePackage
p822
(lp823
VRichMediaCreativeBase
p824
asVgetCreativeTypes
p825
(lp826
VArrayOfCreativeType
p827
asVcreateCreativesFromCreativeUploadSession
p828
(lp829
VCreativeUploadSession
p830
asVreplaceRichMediaAsset
p831
(lp832
VRichMediaCreativeBase
p833
asVuploadRichMediaAsset
p834
(lp835
VRichMediaCreativeBase
p836
assg315
(dp837
VsaveCreativeFieldValue
p838
(lp839
VCreativeFieldValueSaveResult
p840
asVsaveCreativeField
p841
(lp842
VCreativeFieldSaveResult
p843
asVdeleteCreativeField
p844
(lp845
sVgetCreativeFieldValue
p846
(lp847
VCreativeFieldValue
p848
asVgetCreativeFieldValues
p849
(lp850
VCreativeFieldValueRecordSet
p851
asVgetCreativeFields
p852
(lp853
VCreativeFieldRecordSet
p854
asVdeleteCreativeFieldValue
p855
(lp856
sVgetCreativeField
p857
(lp858
VCreativeField
p859
assg339
(dp860
VsavePlacementStrategy
p861
(lp862
VPlacementStrategySaveResult
p863
asVgetPlacementStrategiesByCriteria
p864
(lp865
VPlacementStrategyRecordSet
p866
asVdeletePlacementStrategy
p867
(lp868
sVgetPlacementStrategy
p869
(lp870
VPlacementStrategy
p871
assg352
(dp872
VdeleteContentCategory
p873
(lp874
sVgetContentCategory
p875
(lp876
VContentCategory
p877
asVsaveContentCategory
p878
(lp879
VContentCategorySaveResult
p880
asVgetContentCategories
p881
(lp882
VContentCategoryRecordSet
p883
assg365
(dp884
VgetAvailableUserFilterTypes
p885
(lp886
VArrayOfUserFilterType
p887
asVgetUsersByCriteria
p888
(lp889
VUserRecordSet
p890
asVgenerateUniqueUsername
p891
(lp892
Vsoapenc:string
p893
asVgetUser
p894
(lp895
VUser
p896
asVsendUserInvitationEmail
p897
(lp898
sVsaveUser
p899
(lp900
VUserSaveResult
p901
asVgetAvailableUserFilterCriteriaTypes
p902
(lp903
VArrayOfUserFilterCriteriaType
p904
asVgetAvailableTraffickerTypes
p905
(lp906
VArrayOfTraffickerType
p907
assg390
(dp908
VgetAdvertiserGroup
p909
(lp910
VAdvertiserGroup
p911
asVassignAdvertisersToAdvertiserGroup
p912
(lp913
sVgetAdvertiserGroups
p914
(lp915
VAdvertiserGroupRecordSet
p916
asVdeleteAdvertiserGroup
p917
(lp918
sVsaveAdvertiserGroup
p919
(lp920
VAdvertiserGroupSaveResult
p921
assg227
(dp922
VgetAvailablePermissions
p923
(lp924
VArrayOfPermission
p925
asVgetUserRoleSummaries
p926
(lp927
VUserRoleSummaryRecordSet
p928
asVsaveUserRole
p929
(lp930
VUserRoleSaveResult
p931
asVgetUserRole
p932
(lp933
VUserRole
p934
asVgetUserRoles
p935
(lp936
VUserRoleRecordSet
p937
asVdeleteUserRole
p938
(lp939
ssg416
(dp940
VimpersonateUser
p941
(lp942
VUserProfile
p943
asVauthenticate
p944
(lp945
VUserProfile
p946
asVimpersonateNetwork
p947
(lp948
VUserProfile
p949
asVchangePassword
p950
(lp951
VUserProfile
p952
assg430
(dp953
VgetSize
p954
(lp955
VSize
p956
asVsaveSize
p957
(lp958
VSizeSaveResult
p959
asVgetSizes
p960
(lp961
VSizeRecordSet
p962
assg441
(dp963
VdeleteSpotlightActivityGroup
p964
(lp965
sVgetAvailableCustomSpotlightVariables
p966
(lp967
VArrayOfCustomSpotlightVariable
p968
asVgetSpotlightActivity
p969
(lp970
VSpotlightActivity
p971
asVgetSpotlightActivityTypes
p972
(lp973
VArrayOfSpotlightActivityType
p974
asVgetSpotlightTagFormatTypes
p975
(lp976
VArrayOfSpotlightTagFormatType
p977
asVsaveSpotlightConfiguration
p978
(lp979
VSpotlightConfigurationSaveResult
p980
asVsaveSpotlightActivity
p981
(lp982
VSpotlightActivitySaveResult
p983
asVgetCountriesByCriteria
p984
(lp985
VArrayOfCountry
p986
asVsaveSpotlightActivityGroup
p987
(lp988
VSpotlightActivityGroupSaveResult
p989
asVgetAvailableStandardVariables
p990
(lp991
VArrayOfStandardVariable
p992
asVgetSpotlightActivities
p993
(lp994
VSpotlightActivityRecordSet
p995
asVgetSpotlightConfiguration
p996
(lp997
VSpotlightConfiguration
p998
asVgetSpotlightTagMethodTypes
p999
(lp1000
VArrayOfSpotlightTagMethodType
p1001
asVdeleteSpotlightActivity
p1002
(lp1003
sVgenerateTags
p1004
(lp1005
Vsoapenc:string
p1006
asVgetSpotlightTagCodeTypes
p1007
(lp1008
VArrayOfSpotlightTagCodeType
p1009
asVgetSpotlightActivityGroups
p1010
(lp1011
VSpotlightActivityGroupRecordSet
p1012
assg495
(dp1013
VsaveSubnetwork
p1014
(lp1015
VSubnetworkSaveResult
p1016
asVgetSubnetworkSummaries
p1017
(lp1018
VSubnetworkSummaryRecordSet
p1019
asVgetSubnetwork
p1020
(lp1021
VSubnetwork
p1022
asVgetAllAvailablePermissions
p1023
(lp1024
VArrayOfPermission
p1025
asVgetSubnetworks
p1026
(lp1027
VSubnetworkRecordSet
p1028
asVgetDefaultPermissions
p1029
(lp1030
VArrayOfPermission
p1031
assg515
(dp1032
VgetAssignedNetworkPermissions
p1033
(lp1034
VArrayOfNetworkPermission
p1035
asVsaveNetwork
p1036
(lp1037
VNetworkSaveResult
p1038
asVgetAdministratorPermissions
p1039
(lp1040
VArrayOfAdministratorPermission
p1041
asVgetLanguageEncodingList
p1042
(lp1043
VArrayOfLanguageEncoding
p1044
asVgetCurrencies
p1045
(lp1046
VArrayOfCurrency
p1047
asVgetTimeZoneList
p1048
(lp1049
VArrayOfTimeZone
p1050
asVuploadNetworkWidgetImage
p1051
(lp1052
VWidgetImageUploadResponse
p1053
asVgetNetworks
p1054
(lp1055
VNetworkRecordSet
p1056
asVgetAllNetworkPermissions
p1057
(lp1058
VArrayOfNetworkPermission
p1059
asVgetNetwork
p1060
(lp1061
VNetwork
p1062
asVgetAllPermissions
p1063
(lp1064
VArrayOfPermission
p1065
asssS'v1.14'
p1066
(dp1067
g3
(dp1068
VgetAdvertisers
p1069
(lp1070
VAdvertiserRecordSet
p1071
asVsaveAdvertiser
p1072
(lp1073
VAdvertiserSaveResult
p1074
asVdeleteAdvertiser
p1075
(lp1076
ssg13
(dp1077
VgetPlacementTagData
p1078
(lp1079
VPlacementTagData
p1080
asVgetPlacementTypes
p1081
(lp1082
VArrayOfPlacementType
p1083
asVdeletePlacementGroup
p1084
(lp1085
sVgetPlacement
p1086
(lp1087
VPlacement
p1088
asVgetPricingTypes
p1089
(lp1090
VArrayOfPricingType
p1091
asVgetPlacementGroup
p1092
(lp1093
VPlacementGroup
p1094
asVdeletePlacement
p1095
(lp1096
sVgetInterstitialPlacementTagOptions
p1097
(lp1098
VArrayOfPlacementTagOption
p1099
asVgetMobilePlacementTagOptions
p1100
(lp1101
VArrayOfPlacementTagOption
p1102
asVupdatePlacements
p1103
(lp1104
VPlacementUpdateResultSet
p1105
asVgetInStreamVideoPlacementTagOptions
p1106
(lp1107
VArrayOfPlacementTagOption
p1108
asVgetPlacementsByCriteria
p1109
(lp1110
VPlacementRecordSet
p1111
asVgetPlacementGroupTypes
p1112
(lp1113
VArrayOfPlacementGroupType
p1114
asVgetPlacementGroupsByCriteria
p1115
(lp1116
VPlacementGroupRecordSet
p1117
asVgetRegularPlacementTagOptions
p1118
(lp1119
VArrayOfPlacementTagOption
p1120
asVsavePlacementGroup
p1121
(lp1122
VPlacementGroupSaveResult
p1123
asVsavePlacement
p1124
(lp1125
VPlacementSaveResult
p1126
assg64
(dp1127
VgetBandwidths
p1128
(lp1129
VArrayOfBandwidth
p1130
asVgetAd
p1131
(lp1132
VAdBase
p1133
asVgetCities
p1134
(lp1135
VArrayOfCity
p1136
asVupdateCreativeAssignmentProperties
p1137
(lp1138
VCreativeAdAssociationSaveResultSet
p1139
asVgetOSPs
p1140
(lp1141
VArrayOfOSP
p1142
asVgetOperatingSystems
p1143
(lp1144
VArrayOfOperatingSystem
p1145
asVgetBrowsers
p1146
(lp1147
VArrayOfBrowser
p1148
asVgetCountries
p1149
(lp1150
VArrayOfCountry
p1151
asVgetMobilePlatforms
p1152
(lp1153
VArrayOfMobilePlatform
p1154
asVgetUserListsByCriteria
p1155
(lp1156
VArrayOfUserList
p1157
asVgetUserListGroupsByCriteria
p1158
(lp1159
VArrayOfUserListGroup
p1160
asVgetAds
p1161
(lp1162
VAdRecordSet
p1163
asVoverrideAdProperties
p1164
(lp1165
VOverridableAdPropertiesSaveResult
p1166
asVdeleteAd
p1167
(lp1168
sVgetAreaCodes
p1169
(lp1170
VArrayOfAreaCode
p1171
asVsaveAd
p1172
(lp1173
VAdSaveResult
p1174
asVgetAdTypes
p1175
(lp1176
VArrayOfAdType
p1177
asVgetRegions
p1178
(lp1179
VArrayOfRegion
p1180
asVgetStates
p1181
(lp1182
VArrayOfState
p1183
asVcopyAds
p1184
(lp1185
VArrayOfAdCopyResult
p1186
asVgetDesignatedMarketAreas
p1187
(lp1188
VArrayOfDesignatedMarketArea
p1189
asVgetDomainTypes
p1190
(lp1191
VArrayOfDomainType
p1192
asVgetISPs
p1193
(lp1194
VArrayOfISP
p1195
asVgetDomainNamesBySearchCriteria
p1196
(lp1197
VDomainNameRecordSet
p1198
assg137
(dp1199
VsaveCampaign
p1200
(lp1201
VCampaignSaveResult
p1202
asVsaveLandingPage
p1203
(lp1204
VLandingPageSaveResult
p1205
asVgetCampaign
p1206
(lp1207
VCampaign
p1208
asVmigrateCampaign
p1209
(lp1210
VCampaignMigrationResult
p1211
asVgetCampaignsByCriteria
p1212
(lp1213
VCampaignRecordSet
p1214
asVdeleteCampaign
p1215
(lp1216
sVgetLandingPagesForCampaign
p1217
(lp1218
VLandingPageRecordSet
p1219
asVaddLandingPageToCampaign
p1220
(lp1221
Vxsd:boolean
p1222
asVcopyCampaigns
p1223
(lp1224
VArrayOfCampaignCopyResult
p1225
assg165
(dp1226
VgetChangeLogObjectTypes
p1227
(lp1228
VArrayOfChangeLogObjectType
p1229
asVgetChangeLogRecords
p1230
(lp1231
VChangeLogRecordSet
p1232
asVgetChangeLogRecordForObjectType
p1233
(lp1234
VChangeLogRecord
p1235
asVgetChangeLogRecord
p1236
(lp1237
VChangeLogRecord
p1238
asVupdateChangeLogRecordComments
p1239
(lp1240
sVupdateChangeLogRecordCommentsForObjectType
p1241
(lp1242
ssg183
(dp1243
VsaveCreativeGroup
p1244
(lp1245
VCreativeGroupSaveResult
p1246
asVgetCreativeGroup
p1247
(lp1248
VCreativeGroup
p1249
asVgetCreativeGroups
p1250
(lp1251
VCreativeGroupRecordSet
p1252
asVdeleteCreativeGroup
p1253
(lp1254
ssg196
(dp1255
VgetDfaSite
p1256
(lp1257
VDfaSite
p1258
asVgetAvailableDfaSiteContactTypes
p1259
(lp1260
VArrayOfDfaSiteContactType
p1261
asVgetContacts
p1262
(lp1263
VContactRecordSet
p1264
asVlinkDfaSitesToSiteDirectorySites
p1265
(lp1266
VArrayOfSiteDirectoryDfaSiteMappingResult
p1267
asVimportSiteDirectorySites
p1268
(lp1269
VArrayOfSiteDirectorySiteImportResult
p1270
asVsaveDfaSite
p1271
(lp1272
VDfaSiteSaveResult
p1273
asVgetSitesByCriteria
p1274
(lp1275
VSiteRecordSet
p1276
asVlinkDfaSiteToSiteDirectorySite
p1277
(lp1278
sVsaveSiteDirectorySite
p1279
(lp1280
VSiteSaveResult
p1281
asVgetDfaSites
p1282
(lp1283
VDfaSiteRecordSet
p1284
assg227
(dp1285
VgetAvailablePermissions
p1286
(lp1287
VArrayOfPermission
p1288
asVgetUserRoleSummaries
p1289
(lp1290
VUserRoleSummaryRecordSet
p1291
asVsaveUserRole
p1292
(lp1293
VUserRoleSaveResult
p1294
asVgetUserRole
p1295
(lp1296
VUserRole
p1297
asVgetUserRoles
p1298
(lp1299
VUserRoleRecordSet
p1300
asVdeleteUserRole
p1301
(lp1302
ssg246
(dp1303
VcopyCreative
p1304
(lp1305
VArrayOfCreativeCopyResult
p1306
asVdeleteCreative
p1307
(lp1308
sVreplaceRichMediaCreativePackage
p1309
(lp1310
VRichMediaCreativeBase
p1311
asVgetAssignedCreativeGroupsToCreative
p1312
(lp1313
VCreativeGroupRecordSet
p1314
asVgetCreative
p1315
(lp1316
VCreativeBase
p1317
asVassociateCreativesToCampaign
p1318
(lp1319
VArrayOfCreativeCampaignAssociationResult
p1320
asVassignCreativeGroupsToCreative
p1321
(lp1322
sVsaveCreative
p1323
(lp1324
VCreativeSaveResult
p1325
asVgetCreatives
p1326
(lp1327
VCreativeRecordSet
p1328
asVgetCreativeRenderings
p1329
(lp1330
VArrayOfCreativeRenderingResult
p1331
asVgenerateCreativeUploadSession
p1332
(lp1333
VCreativeUploadSession
p1334
asVassignCreativesToPlacements
p1335
(lp1336
VArrayOfCreativePlacementAssignmentResult
p1337
asVgetCreativeAssets
p1338
(lp1339
VCreativeAssetRecordSet
p1340
asVdeleteRichMediaAsset
p1341
(lp1342
VRichMediaCreativeBase
p1343
asVgetCompleteCreativeUploadSession
p1344
(lp1345
VCreativeUploadSession
p1346
asVsaveCreativeAsset
p1347
(lp1348
VCreativeAssetSaveResult
p1349
asVuploadCreativeFiles
p1350
(lp1351
VCreativeUploadSession
p1352
asVgetRichMediaPreviewURL
p1353
(lp1354
Vsoapenc:string
p1355
asVuploadRichMediaCreativePackage
p1356
(lp1357
VRichMediaCreativeBase
p1358
asVgetCreativeTypes
p1359
(lp1360
VArrayOfCreativeType
p1361
asVcreateCreativesFromCreativeUploadSession
p1362
(lp1363
VCreativeUploadSession
p1364
asVreplaceRichMediaAsset
p1365
(lp1366
VRichMediaCreativeBase
p1367
asVuploadRichMediaAsset
p1368
(lp1369
VRichMediaCreativeBase
p1370
assg315
(dp1371
VsaveCreativeFieldValue
p1372
(lp1373
VCreativeFieldValueSaveResult
p1374
asVsaveCreativeField
p1375
(lp1376
VCreativeFieldSaveResult
p1377
asVdeleteCreativeField
p1378
(lp1379
sVgetCreativeFieldValue
p1380
(lp1381
VCreativeFieldValue
p1382
asVgetCreativeFieldValues
p1383
(lp1384
VCreativeFieldValueRecordSet
p1385
asVgetCreativeFields
p1386
(lp1387
VCreativeFieldRecordSet
p1388
asVdeleteCreativeFieldValue
p1389
(lp1390
sVgetCreativeField
p1391
(lp1392
VCreativeField
p1393
assg339
(dp1394
VsavePlacementStrategy
p1395
(lp1396
VPlacementStrategySaveResult
p1397
asVgetPlacementStrategiesByCriteria
p1398
(lp1399
VPlacementStrategyRecordSet
p1400
asVdeletePlacementStrategy
p1401
(lp1402
sVgetPlacementStrategy
p1403
(lp1404
VPlacementStrategy
p1405
assg352
(dp1406
VdeleteContentCategory
p1407
(lp1408
sVgetContentCategory
p1409
(lp1410
VContentCategory
p1411
asVsaveContentCategory
p1412
(lp1413
VContentCategorySaveResult
p1414
asVgetContentCategories
p1415
(lp1416
VContentCategoryRecordSet
p1417
assg365
(dp1418
VgetAvailableUserFilterTypes
p1419
(lp1420
VArrayOfUserFilterType
p1421
asVgetUsersByCriteria
p1422
(lp1423
VUserRecordSet
p1424
asVgenerateUniqueUsername
p1425
(lp1426
Vsoapenc:string
p1427
asVgetUser
p1428
(lp1429
VUser
p1430
asVsendUserInvitationEmail
p1431
(lp1432
sVsaveUser
p1433
(lp1434
VUserSaveResult
p1435
asVgetAvailableUserFilterCriteriaTypes
p1436
(lp1437
VArrayOfUserFilterCriteriaType
p1438
asVgetAvailableTraffickerTypes
p1439
(lp1440
VArrayOfTraffickerType
p1441
assg390
(dp1442
VgetAdvertiserGroup
p1443
(lp1444
VAdvertiserGroup
p1445
asVassignAdvertisersToAdvertiserGroup
p1446
(lp1447
sVgetAdvertiserGroups
p1448
(lp1449
VAdvertiserGroupRecordSet
p1450
asVdeleteAdvertiserGroup
p1451
(lp1452
sVsaveAdvertiserGroup
p1453
(lp1454
VAdvertiserGroupSaveResult
p1455
assg405
(dp1456
VrunDeferredReport
p1457
(lp1458
VReportInfo
p1459
asVgetReport
p1460
(lp1461
VReportInfo
p1462
asVgetReportsByCriteria
p1463
(lp1464
VReportInfoRecordSet
p1465
assg416
(dp1466
VimpersonateUser
p1467
(lp1468
VUserProfile
p1469
asVauthenticate
p1470
(lp1471
VUserProfile
p1472
asVimpersonateNetwork
p1473
(lp1474
VUserProfile
p1475
asVchangePassword
p1476
(lp1477
VUserProfile
p1478
assg430
(dp1479
VgetSize
p1480
(lp1481
VSize
p1482
asVsaveSize
p1483
(lp1484
VSizeSaveResult
p1485
asVgetSizes
p1486
(lp1487
VSizeRecordSet
p1488
assg441
(dp1489
VdeleteSpotlightActivityGroup
p1490
(lp1491
sVgetAvailableCustomSpotlightVariables
p1492
(lp1493
VArrayOfCustomSpotlightVariable
p1494
asVgetSpotlightActivity
p1495
(lp1496
VSpotlightActivity
p1497
asVgetSpotlightActivityTypes
p1498
(lp1499
VArrayOfSpotlightActivityType
p1500
asVgetSpotlightTagFormatTypes
p1501
(lp1502
VArrayOfSpotlightTagFormatType
p1503
asVgetSpotlightConfiguration
p1504
(lp1505
VSpotlightConfiguration
p1506
asVsaveSpotlightConfiguration
p1507
(lp1508
VSpotlightConfigurationSaveResult
p1509
asVupdateActivityImageTags
p1510
(lp1511
VArrayOfSpotlightActivityImageTagsSaveResult
p1512
asVgetCountriesByCriteria
p1513
(lp1514
VArrayOfCountry
p1515
asVsaveSpotlightActivityGroup
p1516
(lp1517
VSpotlightActivityGroupSaveResult
p1518
asVgetAvailableStandardVariables
p1519
(lp1520
VArrayOfStandardVariable
p1521
asVgetSpotlightActivities
p1522
(lp1523
VSpotlightActivityRecordSet
p1524
asVsaveSpotlightActivity
p1525
(lp1526
VSpotlightActivitySaveResult
p1527
asVgetSpotlightTagMethodTypes
p1528
(lp1529
VArrayOfSpotlightTagMethodType
p1530
asVdeleteSpotlightActivity
p1531
(lp1532
sVgenerateTags
p1533
(lp1534
Vsoapenc:string
p1535
asVgetSpotlightTagCodeTypes
p1536
(lp1537
VArrayOfSpotlightTagCodeType
p1538
asVgetSpotlightActivityGroups
p1539
(lp1540
VSpotlightActivityGroupRecordSet
p1541
assg495
(dp1542
VsaveSubnetwork
p1543
(lp1544
VSubnetworkSaveResult
p1545
asVgetSubnetworkSummaries
p1546
(lp1547
VSubnetworkSummaryRecordSet
p1548
asVgetSubnetwork
p1549
(lp1550
VSubnetwork
p1551
asVgetAllAvailablePermissions
p1552
(lp1553
VArrayOfPermission
p1554
asVgetSubnetworks
p1555
(lp1556
VSubnetworkRecordSet
p1557
asVgetDefaultPermissions
p1558
(lp1559
VArrayOfPermission
p1560
assg515
(dp1561
VgetAssignedNetworkPermissions
p1562
(lp1563
VArrayOfNetworkPermission
p1564
asVsaveNetwork
p1565
(lp1566
VNetworkSaveResult
p1567
asVgetAdministratorPermissions
p1568
(lp1569
VArrayOfAdministratorPermission
p1570
asVgetLanguageEncodingList
p1571
(lp1572
VArrayOfLanguageEncoding
p1573
asVgetCurrencies
p1574
(lp1575
VArrayOfCurrency
p1576
asVgetTimeZoneList
p1577
(lp1578
VArrayOfTimeZone
p1579
asVuploadNetworkWidgetImage
p1580
(lp1581
VWidgetImageUploadResponse
p1582
asVgetNetworks
p1583
(lp1584
VNetworkRecordSet
p1585
asVgetAllNetworkPermissions
p1586
(lp1587
VArrayOfNetworkPermission
p1588
asVgetNetwork
p1589
(lp1590
VNetwork
p1591
asVgetAllPermissions
p1592
(lp1593
VArrayOfPermission
p1594
asss.